(dp1
S'output'
p2
S"<type 'exceptions.AttributeError'> 'str' object has no attribute 'year'"
p3
sS'layer'
p4
S'/Users/habibi/web2py/applications/camp/views/appadmin.html'
p5
sS'code'
p6
S'response.write(\'<!DOCTYPE html>\\n<!--[if lt IE 7]> <html class="no-js lt-ie10 lt-ie9 lt-ie8 lt-ie7 ie6" lang="en" prefix="og: http://ogp.me/ns#"> <![endif]-->\\n<!--[if IE 7]>    <html class="no-js lt-ie10 lt-ie9 lt-ie8 ie7" lang="en" prefix="og: http://ogp.me/ns#"> <![endif]-->\\n<!--[if IE 8]>    <html class="no-js lt-ie10 lt-ie9 ie8" lang="en" prefix="og: http://ogp.me/ns#"> <![endif]-->\\n<!--[if IE 9]>    <html class="no-js lt-ie10 ie9" lang="en" prefix="og: http://ogp.me/ns#"> <![endif]-->\\n<!--[if gt IE 9]><!--> \\n<html class="no-js" lang="en" prefix="og: http://ogp.me/ns#"> <!--<![endif]-->\\n<head>\\n  <meta charset="utf-8">\\n  <meta name="viewport" content="width=1024">\\n  <script src="http://covenantpines.org/wp-content/themes/covenant-pines/js/vendor/modernizr-2.5.3.min.js"></script>\\n  <script src="//ajax.googleapis.com/ajax/libs/jquery/1.7.2/jquery.min.js"></script>\\n  <script>window.jQuery || document.write(\\\'<script src="http://covenantpines.org/wp-content/themes/covenant-pines/js/vendor/jquery-1.7.2.min.js"><\\\\/script>\\\')</script>\\n  <link rel="stylesheet" href="http://covenantpines.org/wp-content/plugins/jquery-colorbox/themes/theme1/colorbox.css?ver=4.6.1">\\n  <link rel="stylesheet" href="http://covenantpines.org/wp-content/themes/covenant-pines/css/bootstrap.css">\\n  <link rel="stylesheet" href="http://covenantpines.org/wp-content/themes/covenant-pines/css/app.css">\\n  <script type=\\\'text/javascript\\\' src=\\\'http://covenantpines.org/wp-content/plugins/wordpress-countdown-widget/js/jquery.countdown.min.js?ver=1.0\\\'></script>\\n  <script type=\\\'text/javascript\\\'>\\n  /* <![CDATA[ */\\n  var jQueryColorboxSettingsArray = {"jQueryColorboxVersion":"4.6.1","colorboxInline":"false","colorboxIframe":"false","colorboxGroupId":"","colorboxTitle":"","colorboxWidth":"false","colorboxHeight":"false","colorboxMaxWidth":"false","colorboxMaxHeight":"false","colorboxSlideshow":"false","colorboxSlideshowAuto":"false","colorboxScalePhotos":"true","colorboxPreloading":"false","colorboxOverlayClose":"true","colorboxLoop":"true","colorboxEscKey":"true","colorboxArrowKey":"true","colorboxScrolling":"true","colorboxOpacity":"0.85","colorboxTransition":"elastic","colorboxSpeed":"350","colorboxSlideshowSpeed":"2500","colorboxClose":"close","colorboxNext":"next","colorboxPrevious":"previous","colorboxSlideshowStart":"start slideshow","colorboxSlideshowStop":"stop slideshow","colorboxCurrent":"{current} of {total} images","colorboxXhrError":"This content failed to load.","colorboxImgError":"This image failed to load.","colorboxImageMaxWidth":"90%","colorboxImageMaxHeight":"90%","colorboxImageHeight":"false","colorboxImageWidth":"false","colorboxLinkHeight":"false","colorboxLinkWidth":"false","colorboxInitialHeight":"100","colorboxInitialWidth":"300","autoColorboxJavaScript":"","autoHideFlash":"","autoColorbox":"true","autoColorboxGalleries":"","addZoomOverlay":"","useGoogleJQuery":"","colorboxAddClassToLinks":""};\\n  /* ]]> */\\n  </script>\\n  <script type=\\\'text/javascript\\\' src=\\\'http://covenantpines.org/wp-content/plugins/jquery-colorbox/js/jquery.colorbox-min.js?ver=1.4.33\\\'></script>\\n  <script type=\\\'text/javascript\\\' src=\\\'http://covenantpines.org/wp-content/plugins/jquery-colorbox/js/jquery-colorbox-wrapper-min.js?ver=4.6.1\\\'></script>\\n  <script type=\\\'text/javascript\\\' src=\\\'http://covenantpines.org/wp-content/plugins/pixelyoursite/js/public.js?ver=1.0\\\'></script>\\n  <script type=\\\'text/javascript\\\' src=\\\'http://covenantpines.org/wp-content/themes/covenant-pines/js/plugins.js\\\'></script>\\n  <script type=\\\'text/javascript\\\' src=\\\'http://covenantpines.org/wp-content/themes/covenant-pines/js/main.js?v=1\\\'></script>\\n  <link rel=\\\'https://api.w.org/\\\' href=\\\'http://covenantpines.org/wp-json/\\\' />\\n  <link rel="alternate" type="application/json+oembed" href="http://covenantpines.org/wp-json/oembed/1.0/embed?url=http%3A%2F%2Fcovenantpines.org%2Fsummer-camps%2F" />\\n  <link rel="alternate" type="text/xml+oembed" href="http://covenantpines.org/wp-json/oembed/1.0/embed?url=http%3A%2F%2Fcovenantpines.org%2Fsummer-camps%2F&#038;format=xml" />\\n  <!-- All in one Favicon 4.3 --><link rel="icon" href="" type="image/png"/>    \\n\\t<link rel="alternate" type="application/rss+xml" title="Special Camps Summer Camp Feed" href="">\\n  <style type="text/css">\\n    h1, h2, h3, h4, h5, h6,\\n    a,\\n    th,\\n    .highlight,\\n    #menu-secondary-navigation li, #menu-secondary-navigation a,\\n    .dropdown-menu .dropdown:first-child .title {\\n      color: #EB6C1E;\\n    } \\n        \\n    a:hover {\\n      color: #bc5618;\\n    }\\n    \\n    .media-gallery-button,\\n    #slideshow-pager .current,\\n    .nav-tabs .current-cat a {\\n      background-color: #EB6C1E;\\n    }\\n    \\n    .navbar-inner .container {\\n      background-color: #ad4a00;\\n    }\\n    \\n    .item-category {\\n      border-color: #EB6C1E;\\n      border-left-color: transparent;\\n    }\\n    \\n    .item-category span {\\n      background: #EB6C1E;\\n    }\\n    \\n          .item-covenant-pines-ministries .item-category {\\n        border-color: #915a2c;\\n        border-left-color: transparent;\\n      }\\n      \\n      .item-covenant-pines-ministries .item-category span {\\n        background: #915a2c;\\n      }\\n      \\n      .item-covenant-pines-ministries h2 a, .item-covenant-pines-ministries p a {\\n        color: #915a2c;\\n      }\\n          .item-covenant-pines-day-camp .item-category {\\n        border-color: #e9c910;\\n        border-left-color: transparent;\\n      }\\n      \\n      .item-covenant-pines-day-camp .item-category span {\\n        background: #e9c910;\\n      }\\n      \\n      .item-covenant-pines-day-camp h2 a, .item-covenant-pines-day-camp p a {\\n        color: #e9c910;\\n      }\\n          .item-silver-beach-family-area .item-category {\\n        border-color: #5396cc;\\n        border-left-color: transparent;\\n      }\\n      \\n      .item-silver-beach-family-area .item-category span {\\n        background: #5396cc;\\n      }\\n      \\n      .item-silver-beach-family-area h2 a, .item-silver-beach-family-area p a {\\n        color: #5396cc;\\n      }\\n          .item-adventurous-christians .item-category {\\n        border-color: #70b120;\\n        border-left-color: transparent;\\n      }\\n      \\n      .item-adventurous-christians .item-category span {\\n        background: #70b120;\\n      }\\n      \\n      .item-adventurous-christians h2 a, .item-adventurous-christians p a {\\n        color: #70b120;\\n      }\\n          .item-covenant-pines-bible-camp .item-category {\\n        border-color: #EB6C1E;\\n        border-left-color: transparent;\\n      }\\n      \\n      .item-covenant-pines-bible-camp .item-category span {\\n        background: #EB6C1E;\\n      }\\n      \\n      .item-covenant-pines-bible-camp h2 a, .item-covenant-pines-bible-camp p a {\\n        color: #EB6C1E;\\n      }\\n        \\n        \\n    .navbar .nav > .active > a, .navbar .nav > .active > a:hover,\\n    .navbar .nav > li > a:hover, .dropdown-hover > a,\\n    .navbar .nav li.dropdown.open > .dropdown-toggle, .navbar .nav li.dropdown.active > .dropdown-toggle, .navbar .nav li.dropdown.open.active > .dropdown-toggle {\\n      background-color: #a40000;\\n      background-color: rgba(164,0,0,0.6);\\n    }\\n    \\n\\n    #menu-primary-navigation > li.active > a:before,\\n    #menu-primary-navigation > li:hover > a:before,\\n    .dropdown-hover > a:before {\\n      border-left-color: #a40000;\\n      border-left-color: rgba(164,0,0,0.6);\\n    }\\n    \\n    #menu-primary-navigation > li.active > a:after,\\n    #menu-primary-navigation > li:hover > a:after,\\n    .dropdown-hover > a:after {\\n      border-bottom-color: #a40000;\\n      border-bottom-color: rgba(164,0,0,0.6);\\n    }\\n    \\n        \\n  </style>\\n  <!--[if IE 6]>\\n    <link href="http://covenantpines.org/wp-content/themes/covenant-pines/css/ie6.min.css" rel="stylesheet">\\n    <script src="http://covenantpines.org/wp-content/themes/covenant-pines/js/ie6.min.js"></script>\\n  <![endif]-->\\n  <!--[if lt IE 9]>\\n    <script src="http://covenantpines.org/wp-content/themes/covenant-pines/js/lt-ie9.js"></script>\\n  <![endif]-->\\n</head>\\n\\n<body class="page page-id-10 page-parent page-template-default summer-camps">\\n    <div id="header">\\n    <div class="container">\\n      <div class="row">\\n        <div class="span6">\\n          <a class="brand" href="http://specialcamps.org/">\\n              <img src="/camp/static/logo" alt="Special Camps Summer Camp" />\\n          </a>\\n        </div>\\n        <div class="span6">\\n          <nav id="nav-secondary" role="navigation">\\n          <div class="menu-secondary-navigation-container"><ul id="menu-secondary-navigation" class="nav nav-pills pull-right"><li class="menu-register"><a href="">Register<small></small></a></li>\\n<li class="menu-donate"><a href="">Donate<small></small></a></li>\\n<li class="menu-wish-list"><a href="">Wish List<small></small></a></li>\\n</ul></div>          </nav>\\n        </div>\\n      </div>\\n    </div>\\n          <header id="banner" class="navbar" role="banner">\\n                <div class="navbar-inner">\\n          <div class="container">\\n                        <nav id="nav-main" role="navigation" class="nav-main-blog-5">\\n              <div class="menu-primary-navigation-container"><ul id="menu-primary-navigation" class="nav"><li class="menu-home"><a href="">Home<small></small></a></li>\\n<li class="menu-summer-camps current-menu-item dropdown active" data-dropdown="dropdown"><a href="" class="dropdown-toggle" ><div class="title">Summer Camps</div><small></small></a>\\n<ul class="dropdown-menu">\\n\\t<li class="menu-youth-camps dropdown" data-dropdown="dropdown"><a href=""><div class="title">Summer Camps</div><small></small></a>\\n<ul class="dropdown-menu">\\n\\t\\t<li class="menu-kids-kamp"><a title="Entering grades 2-3" href="">Youth <small>ages 6 - 21</small></a></li>\\n    \\t\\t<li class="menu-kids-kamp"><a title="Entering grades 2-3" href="">Adults <small>ages 21+</small></a></li>\\n\\t</ul>\\n</li>\\n\\t<li class="menu-links dropdown" data-dropdown="dropdown"><a href="#"><div class="title">Links</div><small></small></a>\\n<ul class="dropdown-menu">\\n\\t\\t<li class="menu-register"><a href="">Register<small></small></a></li>\\n\\t\\t<li class="menu-media-gallery"><a href="">Media Gallery<small></small></a></li>\\n\\t</ul>\\n</li>\\n</ul>\\n</li>\\n<li class="menu-retreats dropdown" data-dropdown="dropdown"><a href="" class="dropdown-toggle" ><div class="title">volunteer</div><small></small></a>\\n<ul class="dropdown-menu">\\n\\t<li class="menu-counselors"><a href="">Counselors<small></small></a></li>\\n\\t<li class="menu-facilities"><a href="">Staff<small></small></a></li>\\n\\t<li class="menu-recreation"><a href="">Nurses<small></small></a></li>\\n\\t<li class="menu-silver-beach"><a href="">Other<small></small></a></li>\\n</ul>\\n</li>\\n<li class="menu-rentals dropdown" data-dropdown="dropdown"><a href="" class="dropdown-toggle" ><div class="title">Camp Life</div><small></small></a>\\n<ul class="dropdown-menu">\\n\\t<li class="menu-counselors"><a href="">Counselors - ages 13-21<small></small></a></li>\\n\\t<li class="menu-facilities"><a href="">Staff - ages 21+<small></small></a></li>\\n\\t<li class="menu-recreation"><a href="">Nurses<small></small></a></li>\\n\\t<li class="menu-silver-beach"><a href="">Other<small></small></a></li>\\n</ul>\\n</li>\\n<li class="menu-news"><a href="">Q&amp;A<small></small></a></li>\\n<li class="menu-about dropdown" data-dropdown="dropdown"><a href="" class="dropdown-toggle" ><div class="title">About</div><small></small></a>\\n<ul class="dropdown-menu">\\n\\t<li class="menu-information dropdown" data-dropdown="dropdown"><a href="#"><div class="title">Information</div><small></small></a>\\n<ul class="dropdown-menu">\\n\\t\\t<li class="menu-mission"><a href="">Mission<small></small></a></li>\\n\\t\\t<li class="menu-directions"><a href="">Directions<small></small></a></li>\\n\\t\\t<li class="menu-staff"><a href="">Financial Aid<small></small></a></li>\\n\\t\\t<li class="menu-board"><a href="">Staff<small></small></a></li>\\n    \\t<li class="menu-contact"><a href="">Board<small></small></a></li>\\n\\t\\t<li class="menu-contact"><a href="">Contact<small></small></a></li>\\n\\t</ul>\\n</li>\\n\\t<li class="menu-giving dropdown" data-dropdown="dropdown"><a href=""><div class="title">Giving</div><small></small></a>\\n<ul class="dropdown-menu">\\n\\t\\t<li class="menu-memorial-giving"><a href="">Memorial Giving<small></small></a></li>\\n\\t\\t<li class="menu-friends-of-covenant-pines"><a href="">Friends of Special Camps<small></small></a></li>\\n\\t\\t<li class="menu-electronic-funds-transfer"><a href="">Electronic Funds Transfer<small></small></a></li>\\n\\t\\t<li class="menu-product-service-donation"><a href="">Product &#038; Service Donation<small></small></a></li>\\n\\t\\t<li class="menu-estate-gifts"><a href="">Estate Gifts<small></small></a></li>\\n\\t\\t<li class="menu-wish-list"><a href="">Wish List<small></small></a></li>\\n\\t</ul>\\n</li>\\n</ul>\\n</li>\\n</ul></div>            </nav>\\n          </div>\\n        </div>\\n      </header><!-- end #banner -->\\n      </div><!-- end .header -->\\n\\n    <div id="wrap" class="container" role="document">\\n      <div id="content" class="row">\\n<div id="main" class="span9" role="main">\\n        \', escape=False)\nresponse.write(\'\\n<script><!--\\n    jQuery(document).ready(function(){\\n    jQuery("table.sortable tbody tr").mouseover( function() {\\n    jQuery(this).addClass("highlight"); }).mouseout( function() {\\n    jQuery(this).removeClass("highlight"); });\\n    jQuery(\\\'table.sortable tbody tr:odd\\\').addClass(\\\'odd\\\');\\n    jQuery(\\\'table.sortable tbody tr:even\\\').addClass(\\\'even\\\');\\n});\\n//--></script>\\n\\n\', escape=False)\nif request.function==\'index\':\n    response.write(\'\\n<h2>\', escape=False)\n    response.write(T("Available Databases and Tables"))\n    response.write(\'</h2>\\n  \', escape=False)\n    if not databases:\n        response.write(T("No databases in this application"))\n        pass\n    response.write(\'\\n  <ul class="nav nav-tabs" id="myTab">\\n  <li class="active" ><a href="#alltables" data-toggle="tab">Tables</a></li>\\n  <li><a href="#hooks" data-toggle="tab">Hooks</a></li>\\n  </ul>\\n  <div class="tab-content">\\n      <div class="tab-pane active" id="alltables">\\n        <table class="table">\\n          \', escape=False)\n    for db in sorted(databases):\n        response.write(\'\\n            \', escape=False)\n        for table in databases[db].tables:\n            response.write(\'\\n              \', escape=False)\n            qry=\'%s.%s.id>0\'%(db,table)\n            response.write(\'\\n              \', escape=False)\n            tbl=databases[db][table]\n            response.write(\'\\n              \', escape=False)\n            if hasattr(tbl,\'_primarykey\'):\n                response.write(\'\\n                \', escape=False)\n                if tbl._primarykey:\n                    response.write(\'\\n                    \', escape=False)\n                    firstkey=tbl[tbl._primarykey[0]]\n                    response.write(\'\\n                    \', escape=False)\n                    if firstkey.type in [\'string\',\'text\']:\n                        response.write(\'\\n                      \', escape=False)\n                        qry=\'%s.%s.%s!=""\'%(db,table,firstkey.name)\n                        response.write(\'\\n                    \', escape=False)\n                    else:\n                        response.write(\'\\n                      \', escape=False)\n                        qry=\'%s.%s.%s>0\'%(db,table,firstkey.name)\n                        response.write(\'\\n                    \', escape=False)\n                        pass\n                    response.write(\'\\n                \', escape=False)\n                else:\n                    response.write(\'\\n                     \', escape=False)\n                    qry=\'\'\n                    response.write(\'\\n                \', escape=False)\n                    pass\n                response.write(\'\\n              \', escape=False)\n                pass\n            response.write(\'\\n          <tr>\\n            <th style="font-size: 1.75em;">\\n              \', escape=False)\n            response.write(A("%s.%s" % (db,table),_href=URL(\'select\',args=[db],vars=dict(query=qry))))\n            response.write(\'\\n            </th>\\n            <td>\\n              \', escape=False)\n            response.write(A(str(T(\'New Record\')),_href=URL(\'insert\',args=[db,table]),_class="btn btn-default"))\n            response.write(\'\\n            </td>\\n          </tr>\\n          \', escape=False)\n            pass\n        response.write(\'\\n          \', escape=False)\n        pass\n    response.write(\'\\n        </table>\\n      </div>\\n      <div class="tab-pane" id="hooks">\\n      \', escape=False)\n    response.write(LOAD(\'appadmin\', \'hooks\', ajax=True))\n    response.write(\'\\n      </div>\\n  </div>\\n\', escape=False)\nelif request.function==\'select\':\n    response.write(\'\\n  <h2>\', escape=False)\n    response.write(XML(str(T("Database %s select"))%A(request.args[0],_href=URL(\'index\'))))\n    response.write(\'\\n  </h2>\\n  \', escape=False)\n    if tb:\n        response.write(\'\\n  <h3>\', escape=False)\n        response.write(T(\'Traceback\'))\n        response.write(\'</h3>\\n  <pre>\\n    \', escape=False)\n        response.write(tb)\n        response.write(\'\\n  </pre>\\n  \', escape=False)\n        pass\n    response.write(\'\\n  \', escape=False)\n    if table:\n        response.write(\'\\n  \', escape=False)\n        response.write(A(str(T(\'New Record\')),_href=URL(\'insert\',args=[request.args[0],table]),_class="btn btn-default"))\n        response.write(\'<br/><br/>\\n    <h3>\', escape=False)\n        response.write(T("Rows in Table"))\n        response.write(\'</h3><br/>\\n   \', escape=False)\n    else:\n        response.write(\'\\n    <h3>\', escape=False)\n        response.write(T("Rows selected"))\n        response.write(\'</h3><br/>\\n   \', escape=False)\n        pass\n    response.write(\'\\n   \', escape=False)\n    response.write(form)\n    response.write(\'\\n   <p>\', escape=False)\n    response.write(T(\'The "query" is a condition like "db.table1.field1==\\\'value\\\'". Something like "db.table1.field1==db.table2.field2" results in a SQL JOIN.\'))\n    response.write(\'<br/>\\n      \', escape=False)\n    response.write(T(\'Use (...)&(...) for AND, (...)|(...) for OR, and ~(...)  for NOT to build more complex queries.\'))\n    response.write(\'<br/>\\n      \', escape=False)\n    response.write(T(\'"update" is an optional expression like "field1=\\\'newvalue\\\'". You cannot update or delete the results of a JOIN\'))\n    response.write(\'</p>\\n    <br/><br/>\\n    <h4>\', escape=False)\n    response.write(T("%s selected", nrows))\n    response.write(\'</h4>\\n    \', escape=False)\n    if start>0:\n        response.write(A(T(\'previous %s rows\') % step,_href=URL(\'select\',args=request.args[0],vars=dict(start=start-step)),_class="btn btn-default"))\n        pass\n    response.write(\'\\n    \', escape=False)\n    if stop<nrows:\n        response.write(A(T(\'next %s rows\') % step,_href=URL(\'select\',args=request.args[0],vars=dict(start=start+step)),_class="btn btn-default"))\n        pass\n    response.write(\'\\n    \', escape=False)\n    if rows:\n        response.write(\'\\n       <div style="overflow:auto; width:80%;">\\n       \', escape=False)\n        linkto = lambda f, t, r: URL(\'update\', args=[request.args[0], r, f]) if f else "#"\n        response.write(\'\\n       \', escape=False)\n        upload=URL(\'download\',args=request.args[0])\n        response.write(\'\\n       \', escape=False)\n        response.write(SQLTABLE(rows,linkto,upload,orderby=True,_class=\'sortable\'))\n        response.write(\'\\n       </div>\\n    \', escape=False)\n        pass\n    response.write(\'\\n    <br/><br/><h3>\', escape=False)\n    response.write(T("Import/Export"))\n    response.write(\'</h3><br/>\\n    <a href="\', escape=False)\n    response.write(URL(\'csv\',args=request.args[0],vars=dict(query=query)))\n    response.write(\'" class="btn btn-default">\', escape=False)\n    response.write(T("export as csv file"))\n    response.write(\'</a>\\n  \', escape=False)\n    response.write(formcsv or \'\')\n    response.write(\'\\n\\n\', escape=False)\nelif request.function==\'insert\':\n    response.write(\'\\n  <h2>\', escape=False)\n    response.write(T("Database"))\n    response.write(\' \', escape=False)\n    response.write(A(request.args[0],_href=URL(\'index\')))\n    response.write(\'\\n    \', escape=False)\n    if hasattr(table,\'_primarykey\'):\n        response.write(\'\\n      \', escape=False)\n        fieldname=table._primarykey[0]\n        response.write(\'\\n      \', escape=False)\n        dbname=request.args[0]\n        response.write(\'\\n      \', escape=False)\n        tablename=request.args[1]\n        response.write(\'\\n      \', escape=False)\n        cond = table[fieldname].type in [\'string\',\'text\'] and \'!=""\' or \'>0\'\n        response.write(\'\\n      \', escape=False)\n        response.write(T("Table"))\n        response.write(\' \', escape=False)\n        response.write(A(tablename,_href=URL(\'select\',args=dbname,vars=dict(query=\'%s.%s.%s%s\'%(dbname,tablename,fieldname,cond)))))\n        response.write(\'\\n    \', escape=False)\n    else:\n        response.write(\'\\n      \', escape=False)\n        response.write(T("Table"))\n        response.write(\' \', escape=False)\n        response.write(A(request.args[1],_href=URL(\'select\',args=request.args[0],vars=dict(query=\'%s.%s.id>0\'%tuple(request.args[:2])))))\n        response.write(\'\\n    \', escape=False)\n        pass\n    response.write(\'\\n  </h2>\\n  <h3>\', escape=False)\n    response.write(T("New Record"))\n    response.write(\'</h3><br/>\\n  \', escape=False)\n    response.write(form)\n    response.write(\'\\n\', escape=False)\nelif request.function==\'update\':\n    response.write(\'\\n  <h2>\', escape=False)\n    response.write(T("Database"))\n    response.write(\' \', escape=False)\n    response.write(A(request.args[0],_href=URL(\'index\')))\n    response.write(\'\\n    \', escape=False)\n    if hasattr(table,\'_primarykey\'):\n        response.write(\'\\n      \', escape=False)\n        fieldname=request.vars.keys()[0]\n        response.write(\'\\n      \', escape=False)\n        dbname=request.args[0]\n        response.write(\'\\n      \', escape=False)\n        tablename=request.args[1]\n        response.write(\'\\n      \', escape=False)\n        cond = table[fieldname].type in [\'string\',\'text\'] and \'!=""\' or \'>0\'\n        response.write(\'\\n      \', escape=False)\n        response.write(T("Table"))\n        response.write(\' \', escape=False)\n        response.write(A(tablename,_href=URL(\'select\',args=dbname,vars=dict(query=\'%s.%s.%s%s\'%(dbname,tablename,fieldname,cond)))))\n        response.write(\'\\n      \', escape=False)\n        response.write(T("Record"))\n        response.write(\' \', escape=False)\n        response.write(A(\'%s=%s\'%request.vars.items()[0],_href=URL(\'update\',args=request.args[:2],vars=request.vars)))\n        response.write(\'\\n    \', escape=False)\n    else:\n        response.write(\'\\n      \', escape=False)\n        response.write(T("Table"))\n        response.write(\' \', escape=False)\n        response.write(A(request.args[1],_href=URL(\'select\',args=request.args[0],vars=dict(query=\'%s.%s.id>0\'%tuple(request.args[:2])))))\n        response.write(\'\\n      \', escape=False)\n        response.write(T("Record id"))\n        response.write(\' \', escape=False)\n        response.write(A(request.args[2],_href=URL(\'update\',args=request.args[:3])))\n        response.write(\'\\n    \', escape=False)\n        pass\n    response.write(\'\\n  </h2>\\n  <h3>\', escape=False)\n    response.write(T("Edit current record"))\n    response.write(\'</h3><br/><br/>\', escape=False)\n    response.write(form)\n    response.write(\'\\n\\n\', escape=False)\nelif request.function==\'state\':\n    response.write(\'\\n  <h2>\', escape=False)\n    response.write(T("Internal State"))\n    response.write(\'</h2>\\n  <h3>\', escape=False)\n    response.write(T("Current request"))\n    response.write(\'</h3>\\n  \', escape=False)\n    response.write(BEAUTIFY(request))\n    response.write(\'\\n  <br/><h3>\', escape=False)\n    response.write(T("Current response"))\n    response.write(\'</h3>\\n  \', escape=False)\n    response.write(BEAUTIFY(response))\n    response.write(\'\\n  <br/><h3>\', escape=False)\n    response.write(T("Current session"))\n    response.write(\'</h3>\\n  \', escape=False)\n    response.write(BEAUTIFY(session))\n    response.write(\'\\n\\n\\n\', escape=False)\nelif request.function == \'ccache\':\n    response.write(\'\\n<h2>\', escape=False)\n    T("Cache")\n    response.write(\'</h2>\\n<div class="list">\\n\\n  <div class="list-header">\\n    <h3>\', escape=False)\n    T("Statistics")\n    response.write(\'</h3>\\n  </div>\\n\\n  <div class="content">\\n    <h4>\', escape=False)\n    response.write(T("Overview"))\n    response.write(\'</h4>\\n    <p>\', escape=False)\n    response.write(T.M("Number of entries: **%s**", total[\'entries\']))\n    response.write(\'</p>\\n    \', escape=False)\n    if total[\'entries\'] > 0:\n        response.write(\'\\n    <p>\', escape=False)\n        response.write(T.M("Hit Ratio: **%(ratio)s%%** (**%(hits)s** %%{hit(hits)} and **%(misses)s** %%{miss(misses)})",\n        dict( ratio=total[\'ratio\'], hits=total[\'hits\'], misses=total[\'misses\'])))\n        response.write(\'\\n    </p>\\n    <p>\\n      \', escape=False)\n        response.write(T("Size of cache:"))\n        response.write(\'\\n      \', escape=False)\n        if object_stats:\n            response.write(\'\\n        \', escape=False)\n            response.write(T.M("**%(items)s** %%{item(items)}, **%(bytes)s** %%{byte(bytes)}", dict(items=total[\'objects\'], bytes=total[\'bytes\'])))\n            response.write(\'\\n        \', escape=False)\n            if total[\'bytes\'] > 524287:\n                response.write(\'\\n          \', escape=False)\n                response.write(T.M("(**%.0d MB**)", total[\'bytes\'] / 1048576))\n                response.write(\'\\n        \', escape=False)\n                pass\n            response.write(\'\\n      \', escape=False)\n        else:\n            response.write(\'\\n        \', escape=False)\n            response.write(T.M("**not available** (requires the Python [[guppy http://pypi.python.org/pypi/guppy/ popup]] library)"))\n            response.write(\'\\n      \', escape=False)\n            pass\n        response.write(\'\\n    </p>\\n    <p>\\n      \', escape=False)\n        response.write(T.M("Cache contains items up to **%(hours)02d** %%{hour(hours)} **%(min)02d** %%{minute(min)} **%(sec)02d** %%{second(sec)} old.",\n        dict(hours=total[\'oldest\'][0], min=total[\'oldest\'][1], sec=total[\'oldest\'][2])))\n        response.write(\'\\n    </p>\\n    \', escape=False)\n        response.write(BUTTON(T(\'Cache Keys\'), _onclick=\'jQuery("#all_keys").toggle().toggleClass( "hidden" );\'))\n        response.write(\'\\n    <div class="hidden" id="all_keys">\\n      \', escape=False)\n        response.write(total[\'keys\'])\n        response.write(\'\\n    </div>\\n    <br />\\n    \', escape=False)\n        pass\n    response.write(\'\\n\\n    <h4>\', escape=False)\n    response.write(T("RAM"))\n    response.write(\'</h4>\\n    <p>\', escape=False)\n    response.write(T.M("Number of entries: **%s**", ram[\'entries\']))\n    response.write(\'</p>\\n    \', escape=False)\n    if ram[\'entries\'] > 0:\n        response.write(\'\\n    <p>\', escape=False)\n        response.write(T.M("Hit Ratio: **%(ratio)s%%** (**%(hits)s** %%{hit(hits)} and **%(misses)s** %%{miss(misses)})",\n        dict( ratio=ram[\'ratio\'], hits=ram[\'hits\'], misses=ram[\'misses\'])))\n        response.write(\'\\n    </p>\\n    <p>\\n      \', escape=False)\n        response.write(T("Size of cache:"))\n        response.write(\'\\n      \', escape=False)\n        if object_stats:\n            response.write(\'\\n        \', escape=False)\n            response.write(T.M("**%(items)s** items, **%(bytes)s** %%{byte(bytes)}", dict(items=ram[\'objects\'], bytes=ram[\'bytes\'])))\n            response.write(\'\\n        \', escape=False)\n            if ram[\'bytes\'] > 524287:\n                response.write(\'\\n          \', escape=False)\n                response.write(T.M("(**%.0d MB**)", ram[\'bytes\'] / 10485576))\n                response.write(\'\\n        \', escape=False)\n                pass\n            response.write(\'\\n      \', escape=False)\n        else:\n            response.write(\'\\n        \', escape=False)\n            response.write(T.M("``**not available**``:red (requires the Python [[guppy http://pypi.python.org/pypi/guppy/ popup]] library)"))\n            response.write(\'\\n      \', escape=False)\n            pass\n        response.write(\'\\n    </p>\\n    <p>\\n      \', escape=False)\n        response.write(T.M("RAM contains items up to **%(hours)02d** %%{hour(hours)} **%(min)02d** %%{minute(min)} **%(sec)02d** %%{second(sec)} old.",\n        dict(hours=ram[\'oldest\'][0], min=ram[\'oldest\'][1], sec=ram[\'oldest\'][2])))\n        response.write(\'\\n    </p>\\n    \', escape=False)\n        response.write(BUTTON(T(\'RAM Cache Keys\'), _onclick=\'jQuery("#ram_keys").toggle().toggleClass( "hidden" );\'))\n        response.write(\'\\n    <div class="hidden" id="ram_keys">\\n      \', escape=False)\n        response.write(ram[\'keys\'])\n        response.write(\'\\n    </div>\\n    <br />\\n    \', escape=False)\n        pass\n    response.write(\'\\n\\n    <h4>\', escape=False)\n    response.write(T("DISK"))\n    response.write(\'</h4>\\n    <p>\', escape=False)\n    response.write(T.M("Number of entries: **%s**", disk[\'entries\']))\n    response.write(\'</p>\\n    \', escape=False)\n    if disk[\'entries\'] > 0:\n        response.write(\'\\n      <p>\\n      \', escape=False)\n        response.write(T.M("Hit Ratio: **%(ratio)s%%** (**%(hits)s** %%{hit(hits)} and **%(misses)s** %%{miss(misses)})",\n        dict(ratio=disk[\'ratio\'], hits=disk[\'hits\'], misses=disk[\'misses\'])))\n        response.write(\'\\n      </p>\\n      <p>\\n      \', escape=False)\n        response.write(T("Size of cache:"))\n        response.write(\'\\n      \', escape=False)\n        if object_stats:\n            response.write(\'\\n        \', escape=False)\n            response.write(T.M("**%(items)s** %%{item(items)}, **%(bytes)s** %%{byte(bytes)}", dict( items=disk[\'objects\'], bytes=disk[\'bytes\'])))\n            response.write(\'\\n        \', escape=False)\n            if disk[\'bytes\'] > 524287:\n                response.write(\'\\n          \', escape=False)\n                response.write(T.M("(**%.0d MB**)", disk[\'bytes\'] / 1048576))\n                response.write(\'\\n        \', escape=False)\n                pass\n            response.write(\'\\n      \', escape=False)\n        else:\n            response.write(\'\\n        \', escape=False)\n            response.write(T.M("``**not available**``:red (requires the Python [[guppy http://pypi.python.org/pypi/guppy/ popup]] library)"))\n            response.write(\'\\n      \', escape=False)\n            pass\n        response.write(\'\\n      </p>\\n      <p>\\n      \', escape=False)\n        response.write(T.M("DISK contains items up to **%(hours)02d** %%{hour(hours)} **%(min)02d** %%{minute(min)} **%(sec)02d** %%{second(sec)} old.",\n        dict(hours=disk[\'oldest\'][0], min=disk[\'oldest\'][1], sec=disk[\'oldest\'][2])))\n        response.write(\'\\n      </p>\\n      \', escape=False)\n        response.write(BUTTON(T(\'Disk Cache Keys\'), _onclick=\'jQuery("#disk_keys").toggle().toggleClass( "hidden" );\'))\n        response.write(\'\\n      <div class="hidden" id="disk_keys">\\n      \', escape=False)\n        response.write(disk[\'keys\'])\n        response.write(\'\\n      </div>\\n      <br />\\n    \', escape=False)\n        pass\n    response.write(\'\\n  </div>\\n\\n  <div class="list-header">\\n    <h3>\', escape=False)\n    response.write(T("Manage Cache"))\n    response.write(\'</h3>\\n  </div>\\n\\n  <div class="content">\\n    <p>\\n      \', escape=False)\n    response.write(form)\n    response.write(\'\\n    </p>\\n  </div>\\n</div>\\n<div class="clear"></div>\\n\', escape=False)\n    pass\nresponse.write(\'\\n\\n\', escape=False)\nif request.function==\'graph_model\':\n    response.write(\'\\n<h2>\', escape=False)\n    response.write(T("Graph Model"))\n    response.write(\'</h2>\\n  \', escape=False)\n    if not pgv:\n        response.write(\'\\n    \', escape=False)\n        response.write(T(\'pygraphviz library not found\'))\n        response.write(\'\\n  \', escape=False)\n    elif not databases:\n        response.write(\'\\n    \', escape=False)\n        response.write(T("No databases in this application"))\n        response.write(\'\\n  \', escape=False)\n    else:\n        response.write(\'\\t   \\n    <div class="btn-group">\\n      <a class="btn dropdown-toggle" data-toggle="dropdown" href="#">\\n        <i class="icon-download"></i> \', escape=False)\n        response.write(T(\'Save model as...\'))\n        response.write(\'\\n        <span class="caret"></span>\\n      </a>\\n      <ul class="dropdown-menu">\\n          <li><a href="\', escape=False)\n        response.write(URL(\'appadmin\', \'bg_graph_model\', args=[\'png\']))\n        response.write(\'">png</a></li>\\n          <li><a href="\', escape=False)\n        response.write(URL(\'appadmin\', \'bg_graph_model\', args=[\'svg\']))\n        response.write(\'">svg</a></li>\\n          <li><a href="\', escape=False)\n        response.write(URL(\'appadmin\', \'bg_graph_model\', args=[\'pdf\']))\n        response.write(\'">pdf</a></li>\\n          <li><a href="\', escape=False)\n        response.write(URL(\'appadmin\', \'bg_graph_model\', args=[\'ps\']))\n        response.write(\'">ps</a></li>          \\n          <li><a href="\', escape=False)\n        response.write(URL(\'appadmin\', \'bg_graph_model\', args=[\'dot\']))\n        response.write(\'">dot</a></li>                                   \\n      </ul>\\n    </div>\\n    <br />\\n    \', escape=False)\n        response.write(IMG(_src=URL(\'appadmin\', \'bg_graph_model\')))\n        response.write(\'\\n  \', escape=False)\n        pass\n    response.write(\'\\n\', escape=False)\n    pass\nresponse.write(\'\\n\\n\', escape=False)\nif request.function == \'manage\':\n    response.write(\'\\n<h2>\', escape=False)\n    response.write(heading)\n    response.write(\'</h2>\\n<ul class="nav nav-tabs">\\n  \', escape=False)\n    for k, tablename in enumerate(tablenames):\n        response.write(\'\\n  <li\', escape=False)\n        response.write(XML(\' class="active"\') if k == 0 else \'\')\n        response.write(\'>\\n    <a href="#table-\', escape=False)\n        response.write(tablename)\n        response.write(\'" data-toggle="tab">\', escape=False)\n        response.write(labels[k])\n        response.write(\'</a>\\n  </li>\\n  \', escape=False)\n        pass\n    response.write(\'\\n</ul>\\n\\n<div class="tab-content">\\n  \', escape=False)\n    for k, tablename in enumerate(tablenames):\n        response.write(\'\\n  <div class="tab-pane\', escape=False)\n        response.write(XML(\' active\') if k == 0 else \'\')\n        response.write(\'" id="table-\', escape=False)\n        response.write(tablename)\n        response.write(\'">\\n    \', escape=False)\n        response.write(LOAD(f=\'manage.load\', args=[request.args(0), k], ajax=True))\n        response.write(\'\\n  </div>\\n  \', escape=False)\n        pass\n    response.write(\'\\n</div>\\n\', escape=False)\n    pass\nresponse.write(\'\\n\', escape=False)\nresponse.write(\'\\n      </div>\\n<aside id="sidebar" class="span3" role="complementary">\\n<div>\\n<section id="follow-us-widget" class="widget-3 widget widget_text"><div class="widget-3 widget-inner"><h3>Follow Us</h3>\\t\\t\\t<div class="textwidget"><a href="https://www.facebook.com/Special-Camps-151206268237679/" id="facebook-link" class="social-link" target="_blank">Facebook</a>\\n<a href="https://twitter.com/" id="twitter-link" class="social-link">Twitter</a>\\n<a href="http://instagram.com/" id="instagram-link" class="social-link">Instagram</a>\\n<a href="https://vimeo.com/" id="vimeo-link" class="social-link" target="_blank">Vimeo</a></div>\\n\\t\\t</div></section><section id="search-widget" class="widget-4 widget widget_search"><div class="widget-4 widget-inner"><h3>Find what you need</h3><form role="search" method="get" id="searchform" class="form-search" action="/">\\n  <label class="visuallyhidden" for="s">Search for:</label>\\n  <input type="text" value="" name="s" id="s" class="search-query" placeholder="Search">\\n  <input type="submit" id="searchsubmit" value="Search" class="btn">\\n</form></div></section><section id="related_content_widget-2" class="widget-5 widget-last widget widget_related_content_widget"><div class="widget-5 widget-last widget-inner"><h3>Resources</h3><ul>\\n<li><a href="">Summer Brochure</a></li>\\n<li><a href="">Financial Aid Application</a></li>\\n</ul>\\n</div></section></div>\\n</aside><!-- /#sidebar -->\\n        </div><!-- /#content -->\\n  \\n  </div><!-- /#wrap -->\\n\\n    <div id="content-info-wrapper">\\n    <footer id="content-info" class="container" role="contentinfo">\\n            <section id="diamond-bloglist" class="widget-1 widget-first widget DiamondBL_widget_endView"><div class="widget-1 widget-first widget-inner"><h3>Join Us</h3>\\n                 <ul><li>\\n                <a href="http://specialcamps.org/">Camper Application</a></li><li><a href="">Counselor Application</a></li><li><a href="">Staff Application</a></li><li><a href="">Camp Nurse Application</a></li></ul>\\n                </div></section>\\n        <section id="image-gallery-widget" class="widget-2 widget widget_search"><div class="widget-2 widget-inner"><h3>Recent Images</h3><ul class="wGallery"><li class="wGallery"><a href="http://covenantpines.org/2016-trailblazer-retreat-pictures/"><img src="http://covenantpines.org/assets/2016-tb-retreat_edited-59-150x150.jpg" alt="2016 Trailblazer Retreat Pictures" title="2016 Trailblazer Retreat Pictures" width="150" height="150" /></a></li><li class="wGallery"><a href="http://covenantpines.org/2016-trailblazer-retreat-pictures/"><img src="http://covenantpines.org/assets/2016-tb-retreat_edited-58-150x150.jpg" alt="2016 Trailblazer Retreat Pictures" title="2016 Trailblazer Retreat Pictures" width="150" height="150" /></a></li><li class="wGallery"><a href="http://covenantpines.org/2016-trailblazer-retreat-pictures/"><img src="http://covenantpines.org/assets/2016-tb-retreat_edited-57-150x150.jpg" alt="2016 Trailblazer Retreat Pictures" title="2016 Trailblazer Retreat Pictures" width="150" height="150" /></a></li><li class="wGallery"><a href="http://covenantpines.org/2016-trailblazer-retreat-pictures/"><img src="http://covenantpines.org/assets/2016-tb-retreat_edited-56-150x150.jpg" alt="2016 Trailblazer Retreat Pictures" title="2016 Trailblazer Retreat Pictures" width="150" height="150" /></a></li><li class="wGallery"><a href="http://covenantpines.org/2016-trailblazer-retreat-pictures/"><img src="http://covenantpines.org/assets/2016-tb-retreat_edited-55-150x150.jpg" alt="2016 Trailblazer Retreat Pictures" title="2016 Trailblazer Retreat Pictures" width="150" height="150" /></a></li><li class="wGallery"><a href="http://covenantpines.org/2016-trailblazer-retreat-pictures/"><img src="http://covenantpines.org/assets/2016-tb-retreat_edited-54-150x150.jpg" alt="2016 Trailblazer Retreat Pictures" title="2016 Trailblazer Retreat Pictures" width="150" height="150" /></a></li><li class="wGallery"><a href="http://covenantpines.org/2016-trailblazer-retreat-pictures/"><img src="http://covenantpines.org/assets/2016-tb-retreat_edited-53-150x150.jpg" alt="2016 Trailblazer Retreat Pictures" title="2016 Trailblazer Retreat Pictures" width="150" height="150" /></a></li><li class="wGallery"><a href="http://covenantpines.org/2016-trailblazer-retreat-pictures/"><img src="http://covenantpines.org/assets/2016-tb-retreat_edited-52-150x150.jpg" alt="2016 Trailblazer Retreat Pictures" title="2016 Trailblazer Retreat Pictures" width="150" height="150" /></a></li><li class="wGallery"><a href="http://covenantpines.org/2016-trailblazer-retreat-pictures/"><img src="http://covenantpines.org/assets/2016-tb-retreat_edited-51-150x150.jpg" alt="2016 Trailblazer Retreat Pictures" title="2016 Trailblazer Retreat Pictures" width="150" height="150" /></a></li><li class="wGallery"><a href="http://covenantpines.org/2016-trailblazer-retreat-pictures/"><img src="http://covenantpines.org/assets/2016-tb-retreat_edited-50-150x150.jpg" alt="2016 Trailblazer Retreat Pictures" title="2016 Trailblazer Retreat Pictures" width="150" height="150" /></a></li><li class="wGallery"><a href="http://covenantpines.org/2016-trailblazer-retreat-pictures/"><img src="http://covenantpines.org/assets/2016-tb-retreat_edited-49-150x150.jpg" alt="2016 Trailblazer Retreat Pictures" title="2016 Trailblazer Retreat Pictures" width="150" height="150" /></a></li><li class="wGallery"><a href="http://covenantpines.org/2016-trailblazer-retreat-pictures/"><img src="http://covenantpines.org/assets/2016-tb-retreat_edited-48-150x150.jpg" alt="2016 Trailblazer Retreat Pictures" title="2016 Trailblazer Retreat Pictures" width="150" height="150" /></a></li></ul></div></section>\\n        <section id="quick-links-widget" class="widget-3 widget widget_nav_menu">\\n            <div class="widget-3 widget-inner">\\n                <h3>Quick Links</h3><div class="menu-footer-quick-links-container"><ul id="menu-footer-quick-links" class="menu">\\n<li id="menu-item-489" class="menu-item menu-item-type-custom menu-item-object-custom menu-item-489"><a href="">About Us</a></li>\\n<li id="menu-item-612" class="menu-item menu-item-type-taxonomy menu-item-object-category menu-item-612"><a href="">Media Gallery</a></li>\\n<li id="menu-item-492" class="menu-item menu-item-type-custom menu-item-object-custom menu-item-492"><a href="">Donate</a></li>\\n<li id="menu-item-70" class="menu-item menu-item-type-post_type menu-item-object-page menu-item-70"><a href="">Home</a></li>\\n</ul></div></div></section>\\n        <section id="contact-info-widget" class="widget-4 widget widget_text"><div class="widget-4 widget-inner"><h3>Special Camps Camp</h3>\\t\\t\\t<div class="textwidget">\\n<p>26W 684 Lindsey Ave.<br/>\\nWinfield, IL 60190<br/>\\n630.690.0944<br/>\\nmcdcolleen@yahoo.com</p>\\n<p>&copy; 2016 Special Camps Summer Camp,<br/>All Rights Reserved</p>\\n</div>\\n\\t\\t</div></section>\\n        </footer>\\n  </div><!-- end #content-info-wrapper -->\\n  <script type=\\\'text/javascript\\\' src=\\\'http://covenantpines.org/wp-content/plugins/contact-form-7/includes/js/jquery.form.min.js?ver=3.51.0-2014.06.20\\\'></script>\\n<script type=\\\'text/javascript\\\'>\\n/* <![CDATA[ */\\nvar _wpcf7 = {"loaderUrl":"http:\\\\/\\\\/covenantpines.org\\\\/wp-content\\\\/plugins\\\\/contact-form-7\\\\/images\\\\/ajax-loader.gif","recaptchaEmpty":"Please verify that you are not a robot.","sending":"Sending ..."};\\n/* ]]> */\\n</script>\\n<script type=\\\'text/javascript\\\' src=\\\'http://covenantpines.org/wp-content/plugins/contact-form-7/includes/js/scripts.js?ver=4.4\\\'></script>\\n<script type=\\\'text/javascript\\\' src=\\\'http://covenantpines.org/wp-includes/js/wp-embed.min.js?ver=4.4.2\\\'></script>\\n</body>\\n</html>\\n\', escape=False)'
p7
sS'snapshot'
p8
(dp9
S'exception'
p10
(dp11
S'__hash__'
p12
S"<method-wrapper '__hash__' of exceptions.AttributeError object>"
p13
sS'__setattr__'
p14
S"<method-wrapper '__setattr__' of exceptions.AttributeError object>"
p15
sS'__reduce_ex__'
p16
S'<built-in method __reduce_ex__ of exceptions.AttributeError object>'
p17
sS'__getslice__'
p18
S"<method-wrapper '__getslice__' of exceptions.AttributeError object>"
p19
sS'__getitem__'
p20
S"<method-wrapper '__getitem__' of exceptions.AttributeError object>"
p21
sS'__setstate__'
p22
S'<built-in method __setstate__ of exceptions.AttributeError object>'
p23
sS'args'
p24
S'("\'str\' object has no attribute \'year\'",)'
p25
sS'__reduce__'
p26
S'<built-in method __reduce__ of exceptions.AttributeError object>'
p27
sS'__str__'
p28
S"<method-wrapper '__str__' of exceptions.AttributeError object>"
p29
sS'__format__'
p30
S'<built-in method __format__ of exceptions.AttributeError object>'
p31
sS'__getattribute__'
p32
S"<method-wrapper '__getattribute__' of exceptions.AttributeError object>"
p33
sS'__class__'
p34
S"<type 'exceptions.AttributeError'>"
p35
sS'__unicode__'
p36
S'<built-in method __unicode__ of exceptions.AttributeError object>'
p37
sS'__delattr__'
p38
S"<method-wrapper '__delattr__' of exceptions.AttributeError object>"
p39
sS'__subclasshook__'
p40
S'<built-in method __subclasshook__ of type object>'
p41
sS'__repr__'
p42
S"<method-wrapper '__repr__' of exceptions.AttributeError object>"
p43
sS'__dict__'
p44
S'{}'
p45
sS'__sizeof__'
p46
S'<built-in method __sizeof__ of exceptions.AttributeError object>'
p47
sS'__doc__'
p48
S"'Attribute not found.'"
p49
sS'__init__'
p50
S"<method-wrapper '__init__' of exceptions.AttributeError object>"
p51
sS'__new__'
p52
S'<built-in method __new__ of type object>'
p53
ssS'evalue'
p54
S"'str' object has no attribute 'year'"
p55
sS'request'
p56
cgluon.html
XML_unpickle
p57
(S's\x86_\x00\x00<div><table><tr><td style="font-weight:bold;vertical-align:top;">ajax</td><td style="vertical-align:top;">:</td><td><div>False</div></td></tr><tr><td style="font-weight:bold;vertical-align:top;">application</td><td style="vertical-align:top;">:</td><td><div>camp</div></td></tr><tr><td style="font-weight:bold;vertical-align:top;">args</td><td style="vertical-align:top;">:</td><td><div><table><tr><td><div>db</div></td></tr></table></div></td></tr><tr><td style="font-weight:bold;vertical-align:top;">cid</td><td style="vertical-align:top;">:</td><td><div>None</div></td></tr><tr><td style="font-weight:bold;vertical-align:top;">client</td><td style="vertical-align:top;">:</td><td><div>127.0.0.1</div></td></tr><tr><td style="font-weight:bold;vertical-align:top;">controller</td><td style="vertical-align:top;">:</td><td><div>appadmin</div></td></tr><tr><td style="font-weight:bold;vertical-align:top;">cookies</td><td style="vertical-align:top;">:</td><td><div><table><tr><td style="font-weight:bold;vertical-align:top;">session_id_admin</td><td style="vertical-align:top;">:</td><td><div>127.0.0.1-9d4353a0-c828-40fe-82b5-811e489506e2<table><tr><td style="font-weight:bold;vertical-align:top;">comment</td><td style="vertical-align:top;">:</td><td><div></div></td></tr><tr><td style="font-weight:bold;vertical-align:top;">domain</td><td style="vertical-align:top;">:</td><td><div></div></td></tr><tr><td style="font-weight:bold;vertical-align:top;">expires</td><td style="vertical-align:top;">:</td><td><div></div></td></tr><tr><td style="font-weight:bold;vertical-align:top;">httponly</td><td style="vertical-align:top;">:</td><td><div></div></td></tr><tr><td style="font-weight:bold;vertical-align:top;">max-age</td><td style="vertical-align:top;">:</td><td><div></div></td></tr><tr><td style="font-weight:bold;vertical-align:top;">path</td><td style="vertical-align:top;">:</td><td><div></div></td></tr><tr><td style="font-weight:bold;vertical-align:top;">secure</td><td style="vertical-align:top;">:</td><td><div></div></td></tr><tr><td style="font-weight:bold;vertical-align:top;">version</td><td style="vertical-align:top;">:</td><td><div></div></td></tr></table></div></td></tr><tr><td style="font-weight:bold;vertical-align:top;">session_id_camp</td><td style="vertical-align:top;">:</td><td><div>127.0.0.1-3782bc05-8379-4591-b816-128c5e671596<table><tr><td style="font-weight:bold;vertical-align:top;">comment</td><td style="vertical-align:top;">:</td><td><div></div></td></tr><tr><td style="font-weight:bold;vertical-align:top;">domain</td><td style="vertical-align:top;">:</td><td><div></div></td></tr><tr><td style="font-weight:bold;vertical-align:top;">expires</td><td style="vertical-align:top;">:</td><td><div></div></td></tr><tr><td style="font-weight:bold;vertical-align:top;">httponly</td><td style="vertical-align:top;">:</td><td><div></div></td></tr><tr><td style="font-weight:bold;vertical-align:top;">max-age</td><td style="vertical-align:top;">:</td><td><div></div></td></tr><tr><td style="font-weight:bold;vertical-align:top;">path</td><td style="vertical-align:top;">:</td><td><div></div></td></tr><tr><td style="font-weight:bold;vertical-align:top;">secure</td><td style="vertical-align:top;">:</td><td><div></div></td></tr><tr><td style="font-weight:bold;vertical-align:top;">version</td><td style="vertical-align:top;">:</td><td><div></div></td></tr></table></div></td></tr><tr><td style="font-weight:bold;vertical-align:top;">session_id_welcome</td><td style="vertical-align:top;">:</td><td><div>127.0.0.1-4f7a1acd-1f50-47c3-bcc7-f3004d73cc84<table><tr><td style="font-weight:bold;vertical-align:top;">comment</td><td style="vertical-align:top;">:</td><td><div></div></td></tr><tr><td style="font-weight:bold;vertical-align:top;">domain</td><td style="vertical-align:top;">:</td><td><div></div></td></tr><tr><td style="font-weight:bold;vertical-align:top;">expires</td><td style="vertical-align:top;">:</td><td><div></div></td></tr><tr><td style="font-weight:bold;vertical-align:top;">httponly</td><td style="vertical-align:top;">:</td><td><div></div></td></tr><tr><td style="font-weight:bold;vertical-align:top;">max-age</td><td style="vertical-align:top;">:</td><td><div></div></td></tr><tr><td style="font-weight:bold;vertical-align:top;">path</td><td style="vertical-align:top;">:</td><td><div></div></td></tr><tr><td style="font-weight:bold;vertical-align:top;">secure</td><td style="vertical-align:top;">:</td><td><div></div></td></tr><tr><td style="font-weight:bold;vertical-align:top;">version</td><td style="vertical-align:top;">:</td><td><div></div></td></tr></table></div></td></tr></table></div></td></tr><tr><td style="font-weight:bold;vertical-align:top;">env</td><td style="vertical-align:top;">:</td><td><div><table><tr><td style="font-weight:bold;vertical-align:top;">HTTP_ACCEPT</td><td style="vertical-align:top;">:</td><td><div>text/html,application/xhtml+xml,application/xml;q=0.9,image/webp,*/*;q=0.8</div></td></tr><tr><td style="font-weight:bold;vertical-align:top;">HTTP_ACCEPT_ENCODING</td><td style="vertical-align:top;">:</td><td><div>gzip, deflate, sdch</div></td></tr><tr><td style="font-weight:bold;vertical-align:top;">HTTP_ACCEPT_LANGUAGE</td><td style="vertical-align:top;">:</td><td><div>en-US,en;q=0.8,ar;q=0.6</div></td></tr><tr><td style="font-weight:bold;vertical-align:top;">HTTP_CONNECTION</td><td style="vertical-align:top;">:</td><td><div>keep-alive</div></td></tr><tr><td style="font-weight:bold;vertical-align:top;">HTTP_COOKIE</td><td style="vertical-align:top;">:</td><td><div>session_id_welcome=127.0.0.1-4f7a1acd-1f50-47c3-bcc7-f3004d73cc84; session_id_admin=127.0.0.1-9d4353a0-c828-40fe-82b5-811e489506e2; session_id_camp=127.0.0.1-3782bc05-8379-4591-b816-128c5e671596</div></td></tr><tr><td style="font-weight:bold;vertical-align:top;">HTTP_DNT</td><td style="vertical-align:top;">:</td><td><div>1</div></td></tr><tr><td style="font-weight:bold;vertical-align:top;">HTTP_HOST</td><td style="vertical-align:top;">:</td><td><div>localhost:8000</div></td></tr><tr><td style="font-weight:bold;vertical-align:top;">HTTP_REFERER</td><td style="vertical-align:top;">:</td><td><div>http://localhost:8000/camp/appadmin/index</div></td></tr><tr><td style="font-weight:bold;vertical-align:top;">HTTP_UPGRADE_INSECURE_REQUESTS</td><td style="vertical-align:top;">:</td><td><div>1</div></td></tr><tr><td style="font-weight:bold;vertical-align:top;">HTTP_USER_AGENT</td><td style="vertical-align:top;">:</td><td><div>Mozilla/5.0 (Macintosh; Intel Mac OS X 10_11_2) AppleWebKit/537.36 (KHTML, like Gecko) Chrome/49.0.2623.75 Safari/537.36</div></td></tr><tr><td style="font-weight:bold;vertical-align:top;">PATH_INFO</td><td style="vertical-align:top;">:</td><td><div>/camp/appadmin/select/db</div></td></tr><tr><td style="font-weight:bold;vertical-align:top;">QUERY_STRING</td><td style="vertical-align:top;">:</td><td><div>query=db.staff.id%3E0</div></td></tr><tr><td style="font-weight:bold;vertical-align:top;">REMOTE_ADDR</td><td style="vertical-align:top;">:</td><td><div>127.0.0.1</div></td></tr><tr><td style="font-weight:bold;vertical-align:top;">REMOTE_PORT</td><td style="vertical-align:top;">:</td><td><div>61656</div></td></tr><tr><td style="font-weight:bold;vertical-align:top;">REQUEST_METHOD</td><td style="vertical-align:top;">:</td><td><div>GET</div></td></tr><tr><td style="font-weight:bold;vertical-align:top;">SCRIPT_NAME</td><td style="vertical-align:top;">:</td><td><div></div></td></tr><tr><td style="font-weight:bold;vertical-align:top;">SERVER_NAME</td><td style="vertical-align:top;">:</td><td><div>Wadi-Al-Sahara.local</div></td></tr><tr><td style="font-weight:bold;vertical-align:top;">SERVER_PORT</td><td style="vertical-align:top;">:</td><td><div>8000</div></td></tr><tr><td style="font-weight:bold;vertical-align:top;">SERVER_PROTOCOL</td><td style="vertical-align:top;">:</td><td><div>HTTP/1.1</div></td></tr><tr><td style="font-weight:bold;vertical-align:top;">SERVER_SOFTWARE</td><td style="vertical-align:top;">:</td><td><div>Rocket 1.2.6</div></td></tr><tr><td style="font-weight:bold;vertical-align:top;">app_folders</td><td style="vertical-align:top;">:</td><td><div>set([&#x27;/Users/habibi/web2py/applications/camp/&#x27;, &#x27;/Users/habibi/web2py/applications/admin/&#x27;, &#x27;/Users/habibi/web2py/applications/welcome/&#x27;])</div></td></tr><tr><td style="font-weight:bold;vertical-align:top;">applications_parent</td><td style="vertical-align:top;">:</td><td><div>/Users/habibi/web2py</div></td></tr><tr><td style="font-weight:bold;vertical-align:top;">cmd_args</td><td style="vertical-align:top;">:</td><td><div><table></table></div></td></tr><tr><td style="font-weight:bold;vertical-align:top;">cmd_options</td><td style="vertical-align:top;">:</td><td><div>&lt;Values at 0x110352e60: {&#x27;verbose&#x27;: False, &#x27;ip&#x27;: &#x27;127.0.0.1&#x27;, &#x27;debuglevel&#x27;: 30, &#x27;with_scheduler&#x27;: False, &#x27;ips&#x27;: [&#x27;fe80::82e6:50ff:fe0b:aec4%en0&#x27;, &#x27;2604:2000:de09:6400:82e6:50ff:fe0b:aec4&#x27;, &#x27;192.168.0.12&#x27;], &#x27;shutdown_timeout&#x27;: 5, &#x27;taskbar&#x27;: False, &#x27;with_coverage&#x27;: False, &#x27;scheduler_groups&#x27;: None, &#x27;port&#x27;: 8000, &#x27;maxthreads&#x27;: None, &#x27;softcron&#x27;: False, &#x27;server_name&#x27;: &#x27;Wadi-Al-Sahara.local&#x27;, &#x27;bpython&#x27;: False, &#x27;nogui&#x27;: False, &#x27;pid_filename&#x27;: &#x27;httpserver.pid&#x27;, &#x27;print_errors&#x27;: False, &#x27;extcron&#x27;: False, &#x27;runcron&#x27;: False, &#x27;run_system_tests&#x27;: False, &#x27;test&#x27;: None, &#x27;folder&#x27;: &#x27;/Users/habibi/web2py&#x27;, &#x27;config&#x27;: &#x27;&#x27;, &#x27;minthreads&#x27;: None, &#x27;shell&#x27;: None, &#x27;run&#x27;: &#x27;&#x27;, &#x27;log_filename&#x27;: &#x27;httpserver.log&#x27;, &#x27;profiler_dir&#x27;: None, &#x27;args&#x27;: [&#x27;&#x27;], &#x27;socket_timeout&#x27;: 5, &#x27;ssl_ca_certificate&#x27;: None, &#x27;scheduler&#x27;: None, &#x27;interfaces&#x27;: None, &#x27;ssl_private_key&#x27;: &#x27;&#x27;, &#x27;gae&#x27;: None, &#x27;password&#x27;: &#x27;Mjsqt!123qwe&#x27;, &#x27;request_queue_size&#x27;: 5, &#x27;ssl_certificate&#x27;: &#x27;&#x27;, &#x27;cronjob&#x27;: False, &#x27;numthreads&#x27;: None, &#x27;quiet&#x27;: False, &#x27;import_models&#x27;: False, &#x27;timeout&#x27;: 10, &#x27;plain&#x27;: False, &#x27;nobanner&#x27;: False}&gt;</div></td></tr><tr><td style="font-weight:bold;vertical-align:top;">db_sessions</td><td style="vertical-align:top;">:</td><td><div>set([])</div></td></tr><tr><td style="font-weight:bold;vertical-align:top;">debugging</td><td style="vertical-align:top;">:</td><td><div>False</div></td></tr><tr><td style="font-weight:bold;vertical-align:top;">gluon_parent</td><td style="vertical-align:top;">:</td><td><div>/Users/habibi/web2py</div></td></tr><tr><td style="font-weight:bold;vertical-align:top;">http_accept</td><td style="vertical-align:top;">:</td><td><div>text/html,application/xhtml+xml,application/xml;q=0.9,image/webp,*/*;q=0.8</div></td></tr><tr><td style="font-weight:bold;vertical-align:top;">http_accept_encoding</td><td style="vertical-align:top;">:</td><td><div>gzip, deflate, sdch</div></td></tr><tr><td style="font-weight:bold;vertical-align:top;">http_accept_language</td><td style="vertical-align:top;">:</td><td><div>en-US,en;q=0.8,ar;q=0.6</div></td></tr><tr><td style="font-weight:bold;vertical-align:top;">http_connection</td><td style="vertical-align:top;">:</td><td><div>keep-alive</div></td></tr><tr><td style="font-weight:bold;vertical-align:top;">http_cookie</td><td style="vertical-align:top;">:</td><td><div>session_id_welcome=127.0.0.1-4f7a1acd-1f50-47c3-bcc7-f3004d73cc84; session_id_admin=127.0.0.1-9d4353a0-c828-40fe-82b5-811e489506e2; session_id_camp=127.0.0.1-3782bc05-8379-4591-b816-128c5e671596</div></td></tr><tr><td style="font-weight:bold;vertical-align:top;">http_dnt</td><td style="vertical-align:top;">:</td><td><div>1</div></td></tr><tr><td style="font-weight:bold;vertical-align:top;">http_host</td><td style="vertical-align:top;">:</td><td><div>localhost:8000</div></td></tr><tr><td style="font-weight:bold;vertical-align:top;">http_referer</td><td style="vertical-align:top;">:</td><td><div>http://localhost:8000/camp/appadmin/index</div></td></tr><tr><td style="font-weight:bold;vertical-align:top;">http_upgrade_insecure_requests</td><td style="vertical-align:top;">:</td><td><div>1</div></td></tr><tr><td style="font-weight:bold;vertical-align:top;">http_user_agent</td><td style="vertical-align:top;">:</td><td><div>Mozilla/5.0 (Macintosh; Intel Mac OS X 10_11_2) AppleWebKit/537.36 (KHTML, like Gecko) Chrome/49.0.2623.75 Safari/537.36</div></td></tr><tr><td style="font-weight:bold;vertical-align:top;">is_jython</td><td style="vertical-align:top;">:</td><td><div>False</div></td></tr><tr><td style="font-weight:bold;vertical-align:top;">is_pypy</td><td style="vertical-align:top;">:</td><td><div>False</div></td></tr><tr><td style="font-weight:bold;vertical-align:top;">is_source</td><td style="vertical-align:top;">:</td><td><div>True</div></td></tr><tr><td style="font-weight:bold;vertical-align:top;">local_hosts</td><td style="vertical-align:top;">:</td><td><div><table><tr><td><div>fe80::82e6:50ff:fe0b:aec4%en0</div></td></tr><tr><td><div>Wadi-Al-Sahara.local</div></td></tr><tr><td><div>::ffff:127.0.0.1</div></td></tr><tr><td><div>::1</div></td></tr><tr><td><div>wadi-al-sahara.local</div></td></tr><tr><td><div>192.168.0.12</div></td></tr><tr><td><div>127.0.0.1</div></td></tr><tr><td><div>2604:2000:de09:6400:82e6:50ff:fe0b:aec4</div></td></tr></table></div></td></tr><tr><td style="font-weight:bold;vertical-align:top;">path_info</td><td style="vertical-align:top;">:</td><td><div>/camp/appadmin/select/db</div></td></tr><tr><td style="font-weight:bold;vertical-align:top;">query_string</td><td style="vertical-align:top;">:</td><td><div>query=db.staff.id%3E0</div></td></tr><tr><td style="font-weight:bold;vertical-align:top;">remote_addr</td><td style="vertical-align:top;">:</td><td><div>127.0.0.1</div></td></tr><tr><td style="font-weight:bold;vertical-align:top;">remote_port</td><td style="vertical-align:top;">:</td><td><div>61656</div></td></tr><tr><td style="font-weight:bold;vertical-align:top;">request_method</td><td style="vertical-align:top;">:</td><td><div>GET</div></td></tr><tr><td style="font-weight:bold;vertical-align:top;">request_uri</td><td style="vertical-align:top;">:</td><td><div>/camp/appadmin/select/db?query=db.staff.id%3E0</div></td></tr><tr><td style="font-weight:bold;vertical-align:top;">script_name</td><td style="vertical-align:top;">:</td><td><div></div></td></tr><tr><td style="font-weight:bold;vertical-align:top;">server_name</td><td style="vertical-align:top;">:</td><td><div>Wadi-Al-Sahara.local</div></td></tr><tr><td style="font-weight:bold;vertical-align:top;">server_port</td><td style="vertical-align:top;">:</td><td><div>8000</div></td></tr><tr><td style="font-weight:bold;vertical-align:top;">server_protocol</td><td style="vertical-align:top;">:</td><td><div>HTTP/1.1</div></td></tr><tr><td style="font-weight:bold;vertical-align:top;">server_software</td><td style="vertical-align:top;">:</td><td><div>Rocket 1.2.6</div></td></tr><tr><td style="font-weight:bold;vertical-align:top;">web2py_path</td><td style="vertical-align:top;">:</td><td><div>/Users/habibi/web2py</div></td></tr><tr><td style="font-weight:bold;vertical-align:top;">web2py_version</td><td style="vertical-align:top;">:</td><td><div>2.12.3-stable+timestamp.2015.08.18.19.14.07</div></td></tr><tr><td style="font-weight:bold;vertical-align:top;">wsgi.errors</td><td style="vertical-align:top;">:</td><td><div>&lt;open file &#x27;&lt;stderr&gt;&#x27;, mode &#x27;w&#x27; at 0x10f3911e0&gt;</div></td></tr><tr><td style="font-weight:bold;vertical-align:top;">wsgi.file_wrapper</td><td style="vertical-align:top;">:</td><td><div>&lt;class wsgiref.util.FileWrapper at 0x1100b8808&gt;</div></td></tr><tr><td style="font-weight:bold;vertical-align:top;">wsgi.input</td><td style="vertical-align:top;">:</td><td><div>&lt;socket._fileobject object at 0x111b02d50&gt;</div></td></tr><tr><td style="font-weight:bold;vertical-align:top;">wsgi.multiprocess</td><td style="vertical-align:top;">:</td><td><div>False</div></td></tr><tr><td style="font-weight:bold;vertical-align:top;">wsgi.multithread</td><td style="vertical-align:top;">:</td><td><div>True</div></td></tr><tr><td style="font-weight:bold;vertical-align:top;">wsgi.run_once</td><td style="vertical-align:top;">:</td><td><div>False</div></td></tr><tr><td style="font-weight:bold;vertical-align:top;">wsgi.url_scheme</td><td style="vertical-align:top;">:</td><td><div>http</div></td></tr><tr><td style="font-weight:bold;vertical-align:top;">wsgi.version</td><td style="vertical-align:top;">:</td><td><div><table><tr><td><div>1</div></td></tr><tr><td><div>0</div></td></tr></table></div></td></tr><tr><td style="font-weight:bold;vertical-align:top;">wsgi_errors</td><td style="vertical-align:top;">:</td><td><div>&lt;open file &#x27;&lt;stderr&gt;&#x27;, mode &#x27;w&#x27; at 0x10f3911e0&gt;</div></td></tr><tr><td style="font-weight:bold;vertical-align:top;">wsgi_file_wrapper</td><td style="vertical-align:top;">:</td><td><div>&lt;class wsgiref.util.FileWrapper at 0x1100b8808&gt;</div></td></tr><tr><td style="font-weight:bold;vertical-align:top;">wsgi_input</td><td style="vertical-align:top;">:</td><td><div>&lt;socket._fileobject object at 0x111b02d50&gt;</div></td></tr><tr><td style="font-weight:bold;vertical-align:top;">wsgi_multiprocess</td><td style="vertical-align:top;">:</td><td><div>False</div></td></tr><tr><td style="font-weight:bold;vertical-align:top;">wsgi_multithread</td><td style="vertical-align:top;">:</td><td><div>True</div></td></tr><tr><td style="font-weight:bold;vertical-align:top;">wsgi_run_once</td><td style="vertical-align:top;">:</td><td><div>False</div></td></tr><tr><td style="font-weight:bold;vertical-align:top;">wsgi_url_scheme</td><td style="vertical-align:top;">:</td><td><div>http</div></td></tr><tr><td style="font-weight:bold;vertical-align:top;">wsgi_version</td><td style="vertical-align:top;">:</td><td><div><table><tr><td><div>1</div></td></tr><tr><td><div>0</div></td></tr></table></div></td></tr></table></div></td></tr><tr><td style="font-weight:bold;vertical-align:top;">extension</td><td style="vertical-align:top;">:</td><td><div>html</div></td></tr><tr><td style="font-weight:bold;vertical-align:top;">folder</td><td style="vertical-align:top;">:</td><td><div>/Users/habibi/web2py/applications/camp/</div></td></tr><tr><td style="font-weight:bold;vertical-align:top;">function</td><td style="vertical-align:top;">:</td><td><div>select</div></td></tr><tr><td style="font-weight:bold;vertical-align:top;">global_settings</td><td style="vertical-align:top;">:</td><td><div><table><tr><td style="font-weight:bold;vertical-align:top;">app_folders</td><td style="vertical-align:top;">:</td><td><div>set([&#x27;/Users/habibi/web2py/applications/camp/&#x27;, &#x27;/Users/habibi/web2py/applications/admin/&#x27;, &#x27;/Users/habibi/web2py/applications/welcome/&#x27;])</div></td></tr><tr><td style="font-weight:bold;vertical-align:top;">applications_parent</td><td style="vertical-align:top;">:</td><td><div>/Users/habibi/web2py</div></td></tr><tr><td style="font-weight:bold;vertical-align:top;">cmd_args</td><td style="vertical-align:top;">:</td><td><div><table></table></div></td></tr><tr><td style="font-weight:bold;vertical-align:top;">cmd_options</td><td style="vertical-align:top;">:</td><td><div>&lt;Values at 0x110352e60: {&#x27;verbose&#x27;: False, &#x27;ip&#x27;: &#x27;127.0.0.1&#x27;, &#x27;debuglevel&#x27;: 30, &#x27;with_scheduler&#x27;: False, &#x27;ips&#x27;: [&#x27;fe80::82e6:50ff:fe0b:aec4%en0&#x27;, &#x27;2604:2000:de09:6400:82e6:50ff:fe0b:aec4&#x27;, &#x27;192.168.0.12&#x27;], &#x27;shutdown_timeout&#x27;: 5, &#x27;taskbar&#x27;: False, &#x27;with_coverage&#x27;: False, &#x27;scheduler_groups&#x27;: None, &#x27;port&#x27;: 8000, &#x27;maxthreads&#x27;: None, &#x27;softcron&#x27;: False, &#x27;server_name&#x27;: &#x27;Wadi-Al-Sahara.local&#x27;, &#x27;bpython&#x27;: False, &#x27;nogui&#x27;: False, &#x27;pid_filename&#x27;: &#x27;httpserver.pid&#x27;, &#x27;print_errors&#x27;: False, &#x27;extcron&#x27;: False, &#x27;runcron&#x27;: False, &#x27;run_system_tests&#x27;: False, &#x27;test&#x27;: None, &#x27;folder&#x27;: &#x27;/Users/habibi/web2py&#x27;, &#x27;config&#x27;: &#x27;&#x27;, &#x27;minthreads&#x27;: None, &#x27;shell&#x27;: None, &#x27;run&#x27;: &#x27;&#x27;, &#x27;log_filename&#x27;: &#x27;httpserver.log&#x27;, &#x27;profiler_dir&#x27;: None, &#x27;args&#x27;: [&#x27;&#x27;], &#x27;socket_timeout&#x27;: 5, &#x27;ssl_ca_certificate&#x27;: None, &#x27;scheduler&#x27;: None, &#x27;interfaces&#x27;: None, &#x27;ssl_private_key&#x27;: &#x27;&#x27;, &#x27;gae&#x27;: None, &#x27;password&#x27;: &#x27;Mjsqt!123qwe&#x27;, &#x27;request_queue_size&#x27;: 5, &#x27;ssl_certificate&#x27;: &#x27;&#x27;, &#x27;cronjob&#x27;: False, &#x27;numthreads&#x27;: None, &#x27;quiet&#x27;: False, &#x27;import_models&#x27;: False, &#x27;timeout&#x27;: 10, &#x27;plain&#x27;: False, &#x27;nobanner&#x27;: False}&gt;</div></td></tr><tr><td style="font-weight:bold;vertical-align:top;">db_sessions</td><td style="vertical-align:top;">:</td><td><div>set([])</div></td></tr><tr><td style="font-weight:bold;vertical-align:top;">debugging</td><td style="vertical-align:top;">:</td><td><div>False</div></td></tr><tr><td style="font-weight:bold;vertical-align:top;">gluon_parent</td><td style="vertical-align:top;">:</td><td><div>/Users/habibi/web2py</div></td></tr><tr><td style="font-weight:bold;vertical-align:top;">is_jython</td><td style="vertical-align:top;">:</td><td><div>False</div></td></tr><tr><td style="font-weight:bold;vertical-align:top;">is_pypy</td><td style="vertical-align:top;">:</td><td><div>False</div></td></tr><tr><td style="font-weight:bold;vertical-align:top;">is_source</td><td style="vertical-align:top;">:</td><td><div>True</div></td></tr><tr><td style="font-weight:bold;vertical-align:top;">local_hosts</td><td style="vertical-align:top;">:</td><td><div><table><tr><td><div>fe80::82e6:50ff:fe0b:aec4%en0</div></td></tr><tr><td><div>Wadi-Al-Sahara.local</div></td></tr><tr><td><div>::ffff:127.0.0.1</div></td></tr><tr><td><div>::1</div></td></tr><tr><td><div>wadi-al-sahara.local</div></td></tr><tr><td><div>192.168.0.12</div></td></tr><tr><td><div>127.0.0.1</div></td></tr><tr><td><div>2604:2000:de09:6400:82e6:50ff:fe0b:aec4</div></td></tr></table></div></td></tr><tr><td style="font-weight:bold;vertical-align:top;">web2py_version</td><td style="vertical-align:top;">:</td><td><div>2.12.3-stable+timestamp.2015.08.18.19.14.07</div></td></tr></table></div></td></tr><tr><td style="font-weight:bold;vertical-align:top;">is_https</td><td style="vertical-align:top;">:</td><td><div>False</div></td></tr><tr><td style="font-weight:bold;vertical-align:top;">is_local</td><td style="vertical-align:top;">:</td><td><div>True</div></td></tr><tr><td style="font-weight:bold;vertical-align:top;">is_restful</td><td style="vertical-align:top;">:</td><td><div>False</div></td></tr><tr><td style="font-weight:bold;vertical-align:top;">is_sheduler</td><td style="vertical-align:top;">:</td><td><div>None</div></td></tr><tr><td style="font-weight:bold;vertical-align:top;">is_shell</td><td style="vertical-align:top;">:</td><td><div>None</div></td></tr><tr><td style="font-weight:bold;vertical-align:top;">now</td><td style="vertical-align:top;">:</td><td><div>datetime.datetime(2016, 3, 13, 20, 14, 36, 164517)</div></td></tr><tr><td style="font-weight:bold;vertical-align:top;">raw_args</td><td style="vertical-align:top;">:</td><td><div>db</div></td></tr><tr><td style="font-weight:bold;vertical-align:top;">raw_extension</td><td style="vertical-align:top;">:</td><td><div>None</div></td></tr><tr><td style="font-weight:bold;vertical-align:top;">url</td><td style="vertical-align:top;">:</td><td><div>/camp/appadmin/select/db</div></td></tr><tr><td style="font-weight:bold;vertical-align:top;">utcnow</td><td style="vertical-align:top;">:</td><td><div>datetime.datetime(2016, 3, 14, 0, 14, 36, 164525)</div></td></tr><tr><td style="font-weight:bold;vertical-align:top;">wsgi</td><td style="vertical-align:top;">:</td><td><div>&lt;gluon.main.LazyWSGI object at 0x111bb6150&gt;</div></td></tr></table></div>'
tRp58
sS'frames'
p59
(lp60
(dp61
S'file'
p62
S'/Users/habibi/web2py/gluon/restricted.py'
p63
sS'dump'
p64
(dp65
S'environment'
p66
S"{'A': <class 'gluon.html.A'>, 'ANY_OF': <class 'gluon.validators.ANY_OF'>, 'ASSIGNJS': <function ASSIGNJS>, 'Auth': <class 'gluon.tools.Auth'>, 'B': <class 'gluon.html.B'>, 'BEAUTIFY': <class 'gluon.html.BEAUTIFY'>, 'BODY': <class 'gluon.html.BODY'>, 'BR': <class 'gluon.html.BR'>, 'BUTTON': <class 'gluon.html.BUTTON'>, 'CAT': <class 'gluon.html.CAT'>, ...}"
p67
sS'ccode'
p68
S'<code object <module> at 0x1119ce030, file "/Use...y/applications/camp/views/appadmin.html", line 1>'
p69
ssS'lnum'
p70
I227
sS'lines'
p71
(dp72
I224
S'            ccode = code'
p73
sI225
S'        else:'
p74
sI226
S'            ccode = compile2(code, layer)'
p75
sI227
S'        exec ccode in environment'
p76
sI228
S'    except HTTP:'
p77
sI229
S'        raise'
p78
sI230
S'    except RestrictedError:'
p79
sI231
S'        # do not encapsulate (obfuscate) the original RestrictedError'
p80
sI222
S'    try:'
p81
sI223
S'        if isinstance(code, types.CodeType):'
p82
ssS'call'
p83
S'(code=r"response.write(\'<!DOCTYPE html>\\n<!--[if lt IE 7...2\\\'></script>\\n</body>\\n</html>\\n\', escape=False)", environment={\'A\': <class \'gluon.html.A\'>, \'ANY_OF\': <class \'gluon.validators.ANY_OF\'>, \'ASSIGNJS\': <function ASSIGNJS>, \'Auth\': <class \'gluon.tools.Auth\'>, \'B\': <class \'gluon.html.B\'>, \'BEAUTIFY\': <class \'gluon.html.BEAUTIFY\'>, \'BODY\': <class \'gluon.html.BODY\'>, \'BR\': <class \'gluon.html.BR\'>, \'BUTTON\': <class \'gluon.html.BUTTON\'>, \'CAT\': <class \'gluon.html.CAT\'>, ...}, layer=\'/Users/habibi/web2py/applications/camp/views/appadmin.html\')'
p84
sS'func'
p85
S'restricted'
p86
sa(dp87
g62
S'/Users/habibi/web2py/applications/camp/views/appadmin.html'
p88
sg64
(dp89
S'form'
p90
S'<gluon.html.FORM object>'
p91
ssg70
I101
sg71
(dp92
I96
S'        response.write(\'\\n       <div style="overflow:auto; width:80%;">\\n       \', escape=False)'
p93
sI97
S'        linkto = lambda f, t, r: URL(\'update\', args=[request.args[0], r, f]) if f else "#"'
p94
sI98
S"        response.write('\\n       ', escape=False)"
p95
sI99
S"        upload=URL('download',args=request.args[0])"
p96
sI100
S"        response.write('\\n       ', escape=False)"
p97
sI101
S"        response.write(SQLTABLE(rows,linkto,upload,orderby=True,_class='sortable'))"
p98
sI102
S"        response.write('\\n       </div>\\n    ', escape=False)"
p99
sI103
S'        pass'
p100
sI104
S"    response.write('\\n    <br/><br/><h3>', escape=False)"
p101
sI105
S'    response.write(T("Import/Export"))'
p102
sI106
S'    response.write(\'</h3><br/>\\n    <a href="\', escape=False)'
p103
sI107
S"    response.write(URL('csv',args=request.args[0],vars=dict(query=query)))"
p104
sI108
S'    response.write(\'" class="btn btn-default">\', escape=False)'
p105
sI109
S'    response.write(T("export as csv file"))'
p106
sI110
S"    response.write('</a>\\n  ', escape=False)"
p107
sI111
S"    response.write(formcsv or '')"
p108
sI92
S'        response.write(A(T(\'next %s rows\') % step,_href=URL(\'select\',args=request.args[0],vars=dict(start=start+step)),_class="btn btn-default"))'
p109
sI93
S'        pass'
p110
sI94
S"    response.write('\\n    ', escape=False)"
p111
sI95
S'    if rows:'
p112
ssg83
S'()'
p113
sg85
S'<module>'
p114
sa(dp115
g62
S'/Users/habibi/web2py/gluon/sqlhtml.py'
p116
sg64
(dp117
S'builtinstr'
p118
S"<type 'str'>"
p119
sS'field'
p120
S'<pydal.objects.Field object>'
p121
sS'r'
S"'1991-08-23'"
p122
sS'field.formatter'
p123
S'<bound method Field.formatter of <pydal.objects.Field object>>'
p124
ssg70
I3283
sg71
(dp125
I3278
S'                    elif r:'
p126
sI3279
S"                        r = current.T('file')"
p127
sI3280
S'                    else:'
p128
sI3281
S"                        r = ''"
p129
sI3282
S"                elif field.type in ['string', 'text']:"
p130
sI3283
S'                    r = str(field.formatter(r))'
p131
sI3284
S'                    truncate_by = truncate'
p132
sI3285
S'                    if headers != {}:  # new implement dict'
p133
sI3286
S'                        if isinstance(headers[colname], dict):'
p134
sI3287
S"                            if isinstance(headers[colname]['truncate'], int):"
p135
ssg83
S"(self=<gluon.sqlhtml.SQLTABLE object>, sqlrows=<Rows (1)>, linkto=<function <lambda>>, upload='/camp/appadmin/download/db', orderby=True, headers={}, truncate=16, columns=['staff.id', 'staff.auth_user', 'staff.created_on', 'staff.first_name', 'staff.middle_name', 'staff.last_name', 'staff.gender', 'staff.dateofbirth', 'staff.street_address', 'staff.city', 'staff.state', 'staff.zipcode', 'staff.day_phone', 'staff.evening_phone', 'staff.prefered_name', 'staff.shirt_size', 'staff.email', 'staff.drivers_license_or_ssn', 'staff.emergency_contact', 'staff.emergency_contact_relationship', ...], th_link='', extracolumns=None, selectid=None, renderstyle=False, cid=None, colgroup=False, **attributes={'_class': 'sortable'})"
p136
sg85
g50
sa(dp137
g62
S'/Users/habibi/web2py/gluon/packages/dal/pydal/objects.py'
p138
sg64
(dp139
S'item'
p140
S'<gluon.validators.IS_DATE object>'
p141
sS'item.formatter'
p142
S'<bound method IS_DATE.formatter of <gluon.validators.IS_DATE object>>'
p143
sS'value'
p144
S"'1991-08-23'"
p145
ssg70
I1631
sg71
(dp146
I1632
S'        return value'
p147
sI1633
S''
sI1634
S'    def validate(self, value):'
p148
sI1635
S'        if not self.requires or self.requires == DEFAULT:'
p149
sI1626
S'        else:'
p150
sI1627
S'            requires = copy.copy(requires)'
p151
sI1628
S'        requires.reverse()'
p152
sI1629
S'        for item in requires:'
p153
sI1630
S"            if hasattr(item, 'formatter'):"
p154
sI1631
S'                value = item.formatter(value)'
p155
ssg83
S"(self=<pydal.objects.Field object>, value='1991-08-23')"
p156
sg85
S'formatter'
p157
sa(dp158
g62
S'/Users/habibi/web2py/gluon/validators.py'
p159
sg64
(dp160
S'value.year'
p161
S'undefined'
p162
sS'value'
p163
S"'1991-08-23'"
p164
sS'year'
p165
g162
ssg70
I2200
sg71
(dp166
I2195
S''
sI2196
S'    def formatter(self, value):'
p167
sI2197
S'        if value is None:'
p168
sI2198
S'            return None'
p169
sI2199
S'        format = self.format'
p170
sI2200
S'        year = value.year'
p171
sI2201
S"        y = '%.4i' % year"
p172
sI2202
S"        format = format.replace('%y', y[-2:])"
p173
sI2203
S"        format = format.replace('%Y', y)"
p174
sI2204
S'        if year < 1900:'
p175
ssg83
S"(self=<gluon.validators.IS_DATE object>, value='1991-08-23')"
p176
sg85
g157
sasS'pyver'
p177
S'Python 2.7.10: /usr/bin/python (prefix: /System/Library/Frameworks/Python.framework/Versions/2.7)'
p178
sS'session'
p179
g57
(S's6\x01\x00\x00<div><table><tr><td style="font-weight:bold;vertical-align:top;">last_orderby</td><td style="vertical-align:top;">:</td><td><div>None</div></td></tr><tr><td style="font-weight:bold;vertical-align:top;">last_query</td><td style="vertical-align:top;">:</td><td><div>db.staff.id&gt;0</div></td></tr></table></div>'
tRp180
sS'etype'
p181
S"<type 'exceptions.AttributeError'>"
p182
sS'date'
p183
S'Sun Mar 13 20:14:36 2016'
p184
sS'response'
p185
g57
(S's\xc3\x1f\x00\x00<div><table><tr><td style="font-weight:bold;vertical-align:top;">body</td><td style="vertical-align:top;">:</td><td><div>&lt;cStringIO.StringO object at 0x112065110&gt;</div></td></tr><tr><td style="font-weight:bold;vertical-align:top;">cookies</td><td style="vertical-align:top;">:</td><td><div><table><tr><td style="font-weight:bold;vertical-align:top;">session_id_camp</td><td style="vertical-align:top;">:</td><td><div>127.0.0.1-3782bc05-8379-4591-b816-128c5e671596<table><tr><td style="font-weight:bold;vertical-align:top;">comment</td><td style="vertical-align:top;">:</td><td><div></div></td></tr><tr><td style="font-weight:bold;vertical-align:top;">domain</td><td style="vertical-align:top;">:</td><td><div></div></td></tr><tr><td style="font-weight:bold;vertical-align:top;">expires</td><td style="vertical-align:top;">:</td><td><div></div></td></tr><tr><td style="font-weight:bold;vertical-align:top;">httponly</td><td style="vertical-align:top;">:</td><td><div></div></td></tr><tr><td style="font-weight:bold;vertical-align:top;">max-age</td><td style="vertical-align:top;">:</td><td><div></div></td></tr><tr><td style="font-weight:bold;vertical-align:top;">path</td><td style="vertical-align:top;">:</td><td><div>/</div></td></tr><tr><td style="font-weight:bold;vertical-align:top;">secure</td><td style="vertical-align:top;">:</td><td><div></div></td></tr><tr><td style="font-weight:bold;vertical-align:top;">version</td><td style="vertical-align:top;">:</td><td><div></div></td></tr></table></div></td></tr></table></div></td></tr><tr><td style="font-weight:bold;vertical-align:top;">delimiters</td><td style="vertical-align:top;">:</td><td><div><table><tr><td><div>{{</div></td></tr><tr><td><div>}}</div></td></tr></table></div></td></tr><tr><td style="font-weight:bold;vertical-align:top;">files</td><td style="vertical-align:top;">:</td><td><div><table></table></div></td></tr><tr><td style="font-weight:bold;vertical-align:top;">flash</td><td style="vertical-align:top;">:</td><td><div></div></td></tr><tr><td style="font-weight:bold;vertical-align:top;">form_label_separator</td><td style="vertical-align:top;">:</td><td><div>: </div></td></tr><tr><td style="font-weight:bold;vertical-align:top;">formstyle</td><td style="vertical-align:top;">:</td><td><div>table3cols</div></td></tr><tr><td style="font-weight:bold;vertical-align:top;">generic_patterns</td><td style="vertical-align:top;">:</td><td><div><table><tr><td><div>*</div></td></tr></table></div></td></tr><tr><td style="font-weight:bold;vertical-align:top;">google_analytics_id</td><td style="vertical-align:top;">:</td><td><div>None</div></td></tr><tr><td style="font-weight:bold;vertical-align:top;">headers</td><td style="vertical-align:top;">:</td><td><div><table><tr><td style="font-weight:bold;vertical-align:top;">X-Powered-By</td><td style="vertical-align:top;">:</td><td><div>web2py</div></td></tr></table></div></td></tr><tr><td style="font-weight:bold;vertical-align:top;">logo</td><td style="vertical-align:top;">:</td><td><div><a class="navbar-brand" href="http://www.specialcamps.org/" id="camp-logo"><b>Special Camps</b></a></div></td></tr><tr><td style="font-weight:bold;vertical-align:top;">menu</td><td style="vertical-align:top;">:</td><td><div><table><tr><td><div><table><tr><td><div>design</div></td></tr><tr><td><div>False</div></td></tr><tr><td><div>/admin/default/design/camp</div></td></tr></table></div></td></tr><tr><td><div><table><tr><td><div>db</div></td></tr><tr><td><div>False</div></td></tr><tr><td><div>/camp/appadmin/index</div></td></tr></table></div></td></tr><tr><td><div><table><tr><td><div>state</div></td></tr><tr><td><div>False</div></td></tr><tr><td><div>/camp/appadmin/state</div></td></tr></table></div></td></tr><tr><td><div><table><tr><td><div>cache</div></td></tr><tr><td><div>False</div></td></tr><tr><td><div>/camp/appadmin/ccache</div></td></tr></table></div></td></tr></table></div></td></tr><tr><td style="font-weight:bold;vertical-align:top;">meta</td><td style="vertical-align:top;">:</td><td><div><table><tr><td style="font-weight:bold;vertical-align:top;">author</td><td style="vertical-align:top;">:</td><td><div>Kate McDonald &lt;katemcdonald39@gmail.com&gt;</div></td></tr><tr><td style="font-weight:bold;vertical-align:top;">description</td><td style="vertical-align:top;">:</td><td><div>Special Camps Summer Camp</div></td></tr><tr><td style="font-weight:bold;vertical-align:top;">generator</td><td style="vertical-align:top;">:</td><td><div>Special Camps, an overnight summer camp for children and adults with special needs</div></td></tr><tr><td style="font-weight:bold;vertical-align:top;">keywords</td><td style="vertical-align:top;">:</td><td><div>special needs, summer camp, downsyndrom</div></td></tr></table></div></td></tr><tr><td style="font-weight:bold;vertical-align:top;">models_to_run</td><td style="vertical-align:top;">:</td><td><div><table><tr><td><div>^\\w+\\.py$</div></td></tr><tr><td><div>^appadmin/\\w+\\.py$</div></td></tr><tr><td><div>^appadmin/select/\\w+\\.py$</div></td></tr></table></div></td></tr><tr><td style="font-weight:bold;vertical-align:top;">postprocessing</td><td style="vertical-align:top;">:</td><td><div><table></table></div></td></tr><tr><td style="font-weight:bold;vertical-align:top;">session_client</td><td style="vertical-align:top;">:</td><td><div>127.0.0.1</div></td></tr><tr><td style="font-weight:bold;vertical-align:top;">session_cookie_compression_level</td><td style="vertical-align:top;">:</td><td><div>None</div></td></tr><tr><td style="font-weight:bold;vertical-align:top;">session_cookie_expires</td><td style="vertical-align:top;">:</td><td><div>None</div></td></tr><tr><td style="font-weight:bold;vertical-align:top;">session_cookie_key</td><td style="vertical-align:top;">:</td><td><div>None</div></td></tr><tr><td style="font-weight:bold;vertical-align:top;">session_data_name</td><td style="vertical-align:top;">:</td><td><div>session_data_camp</div></td></tr><tr><td style="font-weight:bold;vertical-align:top;">session_file</td><td style="vertical-align:top;">:</td><td><div>&lt;open file &#x27;/Users/habibi/web2py/applications/camp/sessions/060/16b/127.0.0.1-3782bc05-8379-4591-b816-128c5e671596&#x27;, mode &#x27;rb+&#x27; at 0x111ee4b70&gt;</div></td></tr><tr><td style="font-weight:bold;vertical-align:top;">session_filename</td><td style="vertical-align:top;">:</td><td><div>/Users/habibi/web2py/applications/camp/sessions/127.0.0.1-3782bc05-8379-4591-b816-128c5e671596</div></td></tr><tr><td style="font-weight:bold;vertical-align:top;">session_hash</td><td style="vertical-align:top;">:</td><td><div>981ee43725fbd2b844aa358af275eade</div></td></tr><tr><td style="font-weight:bold;vertical-align:top;">session_id</td><td style="vertical-align:top;">:</td><td><div>127.0.0.1-3782bc05-8379-4591-b816-128c5e671596</div></td></tr><tr><td style="font-weight:bold;vertical-align:top;">session_id_name</td><td style="vertical-align:top;">:</td><td><div>session_id_camp</div></td></tr><tr><td style="font-weight:bold;vertical-align:top;">session_locked</td><td style="vertical-align:top;">:</td><td><div>True</div></td></tr><tr><td style="font-weight:bold;vertical-align:top;">session_masterapp</td><td style="vertical-align:top;">:</td><td><div>camp</div></td></tr><tr><td style="font-weight:bold;vertical-align:top;">session_new</td><td style="vertical-align:top;">:</td><td><div>False</div></td></tr><tr><td style="font-weight:bold;vertical-align:top;">session_storage_type</td><td style="vertical-align:top;">:</td><td><div>file</div></td></tr><tr><td style="font-weight:bold;vertical-align:top;">status</td><td style="vertical-align:top;">:</td><td><div>200</div></td></tr><tr><td style="font-weight:bold;vertical-align:top;">subtitle</td><td style="vertical-align:top;">:</td><td><div>Database Administration (appadmin)</div></td></tr><tr><td style="font-weight:bold;vertical-align:top;">title</td><td style="vertical-align:top;">:</td><td><div>Special Camps</div></td></tr><tr><td style="font-weight:bold;vertical-align:top;">view</td><td style="vertical-align:top;">:</td><td><div>appadmin.html</div></td></tr></table></div>'
tRp186
sS'locals'
p187
(dp188
S'self'
p189
S'<gluon.validators.IS_DATE object>'
p190
sS'value'
p191
S"'1991-08-23'"
p192
sS'format'
p193
S"'%Y-%m-%d'"
p194
sssS'traceback'
p195
S'Traceback (most recent call last):\n  File "/Users/habibi/web2py/gluon/restricted.py", line 227, in restricted\n    exec ccode in environment\n  File "/Users/habibi/web2py/applications/camp/views/appadmin.html", line 101, in <module>\n    {{=form}}\n  File "/Users/habibi/web2py/gluon/sqlhtml.py", line 3283, in __init__\n    r = str(field.formatter(r))\n  File "/Users/habibi/web2py/gluon/packages/dal/pydal/objects.py", line 1631, in formatter\n    value = item.formatter(value)\n  File "/Users/habibi/web2py/gluon/validators.py", line 2200, in formatter\n    year = value.year\nAttributeError: \'str\' object has no attribute \'year\'\n'
p196
s.