(dp1
S'output'
p2
S"<type 'exceptions.SyntaxError'> not enough information to build the url (camp default )"
p3
sS'layer'
p4
S'/Users/habibi/web2py/applications/camp/views/default/user.html'
p5
sS'code'
p6
S'response.write(\'<!DOCTYPE html>\\n<!--[if lt IE 7]> <html class="no-js lt-ie10 lt-ie9 lt-ie8 lt-ie7 ie6" lang="en" prefix="og: http://ogp.me/ns#"> <![endif]-->\\n<!--[if IE 7]>    <html class="no-js lt-ie10 lt-ie9 lt-ie8 ie7" lang="en" prefix="og: http://ogp.me/ns#"> <![endif]-->\\n<!--[if IE 8]>    <html class="no-js lt-ie10 lt-ie9 ie8" lang="en" prefix="og: http://ogp.me/ns#"> <![endif]-->\\n<!--[if IE 9]>    <html class="no-js lt-ie10 ie9" lang="en" prefix="og: http://ogp.me/ns#"> <![endif]-->\\n<!--[if gt IE 9]><!--> \\n<html class="no-js" lang="en" prefix="og: http://ogp.me/ns#"> <!--<![endif]-->\\n<head>\\n  <meta charset="utf-8">\\n  <meta name="viewport" content="width=1024">\\n  <script src="//ajax.googleapis.com/ajax/libs/jquery/1.7.2/jquery.min.js"></script>\\n  <link href="\', escape=False)\nresponse.write(URL(\'static\', \'css/bootstrap.css\'))\nresponse.write(\'" rel="stylesheet" type="text/css"/>\\n  <link href="\', escape=False)\nresponse.write(URL(\'static\', \'css/app.css\'))\nresponse.write(\'" rel="stylesheet" type="text/css"/>\\n  <script type=\\\'text/javascript\\\'>\\n  /* <![CDATA[ */\\n  var jQueryColorboxSettingsArray = {"jQueryColorboxVersion":"4.6.1","colorboxInline":"false","colorboxIframe":"false","colorboxGroupId":"","colorboxTitle":"","colorboxWidth":"false","colorboxHeight":"false","colorboxMaxWidth":"false","colorboxMaxHeight":"false","colorboxSlideshow":"false","colorboxSlideshowAuto":"false","colorboxScalePhotos":"true","colorboxPreloading":"false","colorboxOverlayClose":"true","colorboxLoop":"true","colorboxEscKey":"true","colorboxArrowKey":"true","colorboxScrolling":"true","colorboxOpacity":"0.85","colorboxTransition":"elastic","colorboxSpeed":"350","colorboxSlideshowSpeed":"2500","colorboxClose":"close","colorboxNext":"next","colorboxPrevious":"previous","colorboxSlideshowStart":"start slideshow","colorboxSlideshowStop":"stop slideshow","colorboxCurrent":"{current} of {total} images","colorboxXhrError":"This content failed to load.","colorboxImgError":"This image failed to load.","colorboxImageMaxWidth":"90%","colorboxImageMaxHeight":"90%","colorboxImageHeight":"false","colorboxImageWidth":"false","colorboxLinkHeight":"false","colorboxLinkWidth":"false","colorboxInitialHeight":"100","colorboxInitialWidth":"300","autoColorboxJavaScript":"","autoHideFlash":"","autoColorbox":"true","autoColorboxGalleries":"","addZoomOverlay":"","useGoogleJQuery":"","colorboxAddClassToLinks":""};\\n  /* ]]> */\\n  </script>\\n  <style type="text/css">\\n    h1, h2, h3, h4, h5, h6,\\n    a,\\n    th,\\n    .highlight,\\n    #menu-secondary-navigation li, #menu-secondary-navigation a,\\n    .dropdown-menu .dropdown:first-child .title {\\n      color: #EB6C1E;\\n    } \\n        \\n    a:hover {\\n      color: #bc5618;\\n    }\\n    \\n    .media-gallery-button,\\n    #slideshow-pager .current,\\n    .nav-tabs .current-cat a {\\n      background-color: #EB6C1E;\\n    }\\n    \\n    .navbar-inner .container {\\n      background-color: #ad4a00;\\n    }\\n    \\n    .item-category {\\n      border-color: #EB6C1E;\\n      border-left-color: transparent;\\n    }\\n    \\n    .item-category span {\\n      background: #EB6C1E;\\n    }\\n    \\n          .item-covenant-pines-ministries .item-category {\\n        border-color: #915a2c;\\n        border-left-color: transparent;\\n      }\\n      \\n      .item-covenant-pines-ministries .item-category span {\\n        background: #915a2c;\\n      }\\n      \\n      .item-covenant-pines-ministries h2 a, .item-covenant-pines-ministries p a {\\n        color: #915a2c;\\n      }\\n          .item-covenant-pines-day-camp .item-category {\\n        border-color: #e9c910;\\n        border-left-color: transparent;\\n      }\\n      \\n      .item-covenant-pines-day-camp .item-category span {\\n        background: #e9c910;\\n      }\\n      \\n      .item-covenant-pines-day-camp h2 a, .item-covenant-pines-day-camp p a {\\n        color: #e9c910;\\n      }\\n          .item-silver-beach-family-area .item-category {\\n        border-color: #5396cc;\\n        border-left-color: transparent;\\n      }\\n      \\n      .item-silver-beach-family-area .item-category span {\\n        background: #5396cc;\\n      }\\n      \\n      .item-silver-beach-family-area h2 a, .item-silver-beach-family-area p a {\\n        color: #5396cc;\\n      }\\n          .item-adventurous-christians .item-category {\\n        border-color: #70b120;\\n        border-left-color: transparent;\\n      }\\n      \\n      .item-adventurous-christians .item-category span {\\n        background: #70b120;\\n      }\\n      \\n      .item-adventurous-christians h2 a, .item-adventurous-christians p a {\\n        color: #70b120;\\n      }\\n          .item-covenant-pines-bible-camp .item-category {\\n        border-color: #EB6C1E;\\n        border-left-color: transparent;\\n      }\\n      \\n      .item-covenant-pines-bible-camp .item-category span {\\n        background: #EB6C1E;\\n      }\\n      \\n      .item-covenant-pines-bible-camp h2 a, .item-covenant-pines-bible-camp p a {\\n        color: #EB6C1E;\\n      }\\n        \\n        \\n    .navbar .nav > .active > a, .navbar .nav > .active > a:hover,\\n    .navbar .nav > li > a:hover, .dropdown-hover > a,\\n    .navbar .nav li.dropdown.open > .dropdown-toggle, .navbar .nav li.dropdown.active > .dropdown-toggle, .navbar .nav li.dropdown.open.active > .dropdown-toggle {\\n      background-color: #a40000;\\n      background-color: rgba(164,0,0,0.6);\\n    }\\n    \\n\\n    #menu-primary-navigation > li.active > a:before,\\n    #menu-primary-navigation > li:hover > a:before,\\n    .dropdown-hover > a:before {\\n      border-left-color: #a40000;\\n      border-left-color: rgba(164,0,0,0.6);\\n    }\\n    \\n    #menu-primary-navigation > li.active > a:after,\\n    #menu-primary-navigation > li:hover > a:after,\\n    .dropdown-hover > a:after {\\n      border-bottom-color: #a40000;\\n      border-bottom-color: rgba(164,0,0,0.6);\\n    }\\n    \\n        \\n  </style>\\n  <!--[if IE 6]>\\n    <link href="http://covenantpines.org/wp-content/themes/covenant-pines/css/ie6.min.css" rel="stylesheet">\\n    <script src="http://covenantpines.org/wp-content/themes/covenant-pines/js/ie6.min.js"></script>\\n  <![endif]-->\\n  <!--[if lt IE 9]>\\n    <script src="http://covenantpines.org/wp-content/themes/covenant-pines/js/lt-ie9.js"></script>\\n  <![endif]-->\\n</head>\\n\\n<body class="page page-id-10 page-parent page-template-default summer-camps">\\n    <div id="header">\\n    <div class="container">\\n      <div class="row">\\n        <div class="span6">\\n          <a class="brand" href="http://specialcamps.org/">\\n            <img src="/camp/static/logo" alt="Special Camps Summer Camp"/>\\n          </a>\\n        </div>\\n        <div class="span6">\\n          <nav id="nav-secondary" role="navigation">\\n            <div class="menu-secondary-navigation-container">\\n              <ul id="menu-secondary-navigation" class="nav nav-pills pull-right">\\n                <li class="menu-register">\\n                 \', escape=False)\nresponse.write(A(\'Register\', callback=URL(\'registration\')))\nresponse.write(\'\\n                </li>\\n                <li class="menu-donate">\\n                  \', escape=False)\nresponse.write(A(\'Donate\', callback=URL(\'donate\')))\nresponse.write(\'\\n                </li>\\n                <li class="menu-wish-list">\\n                    \', escape=False)\nresponse.write(A(\'Wish List\', callback=URL(\'wishlist\')))\nresponse.write(\'\\n                </li>\\n              </ul>\\n            </div>\\n          </nav>\\n        </div>\\n      </div>\\n    </div>\\n    <header id="banner" class="navbar" role="banner">\\n      <div class="navbar-inner">\\n        <div class="container">\\n          <nav id="nav-main" role="navigation" class="nav-main-blog-5">\\n            <div class="menu-primary-navigation-container">\\n              <ul id="menu-primary-navigation" class="nav">\\n                <li class="menu-home"><a href="">Home<small></small></a>\\n                </li>\\n                <li class="menu-summer-camps current-menu-item dropdown active" data-dropdown="dropdown">\\n                  <a href="" class="dropdown-toggle" >\\n                    <div class="title">Summer Camps\\n                    </div>\\n                  </a>\\n                  <ul class="dropdown-menu">\\n                  \\t<li class="menu-youth-camps dropdown" data-dropdown="dropdown"><a href=""><div class="title">Summer Camps</div><small></small></a>\\n                    <ul class="dropdown-menu">\\n                  \\t\\t<li class="menu-kids-kamp"><a title="Entering grades 2-3" href="">Youth <small>ages 6 - 21</small></a></li>\\n                  \\t\\t<li class="menu-kids-kamp"><a title="Entering grades 2-3" href="">Adults <small>ages 21+</small></a></li>\\n                  \\t</ul>\\n                    </li>\\n                  \\t<li class="menu-links dropdown" data-dropdown="dropdown"><a href="#"><div class="title">Links</div><small></small></a>\\n                    <ul class="dropdown-menu">\\n                  \\t\\t<li class="menu-register"><a href="">Register<small></small></a></li>\\n                  \\t\\t<li class="menu-media-gallery"><a href="">Media Gallery<small></small></a></li>\\n                  \\t</ul>\\n                    </li>\\n                  </ul>\\n                </li>\\n                <li class="menu-retreats dropdown" data-dropdown="dropdown"><a href="" class="dropdown-toggle" ><div class="title">volunteer</div><small></small></a>\\n                <ul class="dropdown-menu">\\n                \\t<li class="menu-counselors">\\n                    \', escape=False)\nresponse.write(A(\'Counselors - ages 13-21\', callback=URL(\'counselor\')))\nresponse.write(\'\\n                  </li>\\n                \\t<li class="menu-facilities">\\n                      \', escape=False)\nresponse.write(A(\'Staff - ages 21+\', callback=URL(\'staff\')))\nresponse.write(\'\\n                  </li>\\n                \\t<li class="menu-recreation">\\n                      \', escape=False)\nresponse.write(A(\'Nurses\', callback=URL(\'nurses\')))\nresponse.write(\'\\n                  </li>\\n                </ul>\\n                </li>\\n                <li class="menu-news" data-dropdown="dropdown">\\n                      \', escape=False)\nresponse.write(A(\'Activities\', callback=URL(\'activities\')))\nresponse.write(\'\\n                </li>\\n                <li class="menu-news">\\n                      \', escape=False)\nresponse.write(A(\'Q&A\', callback=URL(\'questions\')))\nresponse.write(\'\\n                </li>\\n                <li class="menu-about dropdown" data-dropdown="dropdown">\\n                      \', escape=False)\nresponse.write(A(\'About\', callback=URL(\'about\')))\nresponse.write(\'\\n                </li>\\n              </ul>\\n            </li>\\n          </ul>\\n        </div>\\n      </nav>\\n    </div>\\n  </div>\\n</header><!-- end #banner -->\\n</div><!-- end .header -->\\n\\n<div id="wrap" class="container" role="document">\\n  <div id="content" class="row">\\n    <div id="main" class="span9" role="main">\\n        \', escape=False)\nresponse.write(\'\\n\\n<h2>\\n\', escape=False)\nresponse.write(T(\'Sign Up\') if request.args(0) == \'register\' else T(\'Log In\') if request.args(0) == \'login\' else T(request.args(0).replace(\'_\',\' \').title()))\nresponse.write(\'\\n</h2>\\n\\n<div class="container">\\n    <div class="row">\\n        <div id="web2py_user_form" class="col-lg-6">\\n        \', escape=False)\nif request.args(0)==\'login\':\n    if not \'register\' in auth.settings.actions_disabled:\n        form.add_button(T(\'Sign Up\'),URL(args=\'register\', vars={\'_next\': request.vars._next} if request.vars._next else None),_class=\'btn btn-default\')\n        pass\n    if not \'request_reset_password\' in auth.settings.actions_disabled:\n        form.add_button(T(\'Lost Password\'),URL(args=\'request_reset_password\'),_class=\'btn btn-default\')\n        pass\n    pass\nresponse.write(form)\nresponse.write(\'\\n        </div>\\n    </div>\\n</div>\\n\\n\\n\', escape=False)\nresponse.write(\'\\n<script>\\n    jQuery("#web2py_user_form input:visible:enabled:first").focus();\\n\', escape=False)\nif request.args(0)==\'register\':\n    response.write("\\n    web2py_validate_entropy(jQuery(\'#auth_user_password\'),100);\\n", escape=False)\nelif request.args(0)==\'change_password\':\n    response.write("\\n    web2py_validate_entropy(jQuery(\'#no_table_new_password\'),100);\\n", escape=False)\n    pass\nresponse.write(\'\\n</script>\\n\', escape=False)\nresponse.write(\'\\n\', escape=False)\nresponse.write(\'\\n    </div>\\n    <aside id="sidebar" class="span3" role="complementary">\\n    <div>\\n    <section id="follow-us-widget" class="widget-3 widget widget_text">\\n      <div class="widget-3 widget-inner">\\n        <h3>Follow Us</h3>\\n        <div class="textwidget">\\n          <a href="https://www.facebook.com/Special-Camps-151206268237679/" id="facebook-link" class="social-link" target="_blank">Facebook</a>\\n          <a href="https://twitter.com/" id="twitter-link" class="social-link">Twitter</a>\\n          <a href="http://instagram.com/" id="instagram-link" class="social-link">Instagram</a>\\n          <a href="https://vimeo.com/" id="vimeo-link" class="social-link" target="_blank">Vimeo</a>\\n        </div>\\n  \\t\\t</div>\\n    </section>\\n    <section id="search-widget" class="widget-4 widget widget_search">\\n      <div class="widget-4 widget-inner">\\n        <h3>Find what you need</h3>\\n        <form role="search" method="get" id="searchform" class="form-search" action="/">\\n        <label class="visuallyhidden" for="s">Search for:</label>\\n        <input type="text" value="" name="s" id="s" class="search-query" placeholder="Search">\\n        <input type="submit" id="searchsubmit" value="Search" class="btn">\\n        </form>\\n      </div>\\n    </section>\\n    <section id="related_content_widget-2" class="widget-5 widget-last widget widget_related_content_widget">\\n      <div class="widget-5 widget-last widget-inner">\\n        <h3>Resources</h3>\\n        <ul>\\n          <li><a href="">Summer Brochure</a></li>\\n          <li><a href="">Financial Aid Application</a></li>\\n        </ul>\\n      </div>\\n    </section>\\n    </div>\\n    </aside><!-- /#sidebar -->\\n  </div><!-- /#content --> \\n</div><!-- /#wrap -->\\n\\n<div id="content-info-wrapper">\\n  <footer id="content-info" class="container" role="contentinfo">\\n    <section id="diamond-bloglist" class="widget-1 widget-first widget DiamondBL_widget_endView">\\n      <div class="widget-1 widget-first widget-inner">\\n        <h3>Join Us</h3>\\n          <ul>\\n            <li>\', escape=False)\nresponse.write(A(\'Camper Application\', callback=URL(\'camper\')))\nresponse.write(\'</li>\\n            <li>\', escape=False)\nresponse.write(A(\'Counselor Application\', callback=URL(\'counselor\')))\nresponse.write(\'</li>\\n            <li>\', escape=False)\nresponse.write(A(\'Staff Application\', callback=URL(\'staff\')))\nresponse.write(\'</li>\\n            <li>\', escape=False)\nresponse.write(A(\'Nurse Application\', callback=URL(\'nurses\')))\nresponse.write(\'</li>            \\n          </ul>\\n      </div>\\n    </section>\\n    <section id="image-gallery-widget" class="widget-2 widget widget_search">\\n      <div class="widget-2 widget-inner">\\n        <h3>Recent Images</h3>\\n        <ul class="wGallery">\\n          <li class="wGallery">\\n            <a href="http://covenantpines.org/2016-trailblazer-retreat-pictures/">\\n              <img src="http://covenantpines.org/assets/2016-tb-retreat_edited-59-150x150.jpg" alt="2016 Trailblazer Retreat Pictures" title="2016 Trailblazer Retreat Pictures" width="150" height="150" />\\n            </a>\\n          </li>\\n          <li class="wGallery">\\n            <a href="http://covenantpines.org/2016-trailblazer-retreat-pictures/">\\n              <img src="http://covenantpines.org/assets/2016-tb-retreat_edited-58-150x150.jpg" alt="2016 Trailblazer Retreat Pictures" title="2016 Trailblazer Retreat Pictures" width="150" height="150" />\\n            </a>\\n          </li>\\n          <li class="wGallery">\\n            <a href="http://covenantpines.org/2016-trailblazer-retreat-pictures/">\\n              <img src="http://covenantpines.org/assets/2016-tb-retreat_edited-57-150x150.jpg" alt="2016 Trailblazer Retreat Pictures" title="2016 Trailblazer Retreat Pictures" width="150" height="150" />\\n            </a>\\n          </li>\\n          <li class="wGallery">\\n            <a href="http://covenantpines.org/2016-trailblazer-retreat-pictures/">\\n              <img src="http://covenantpines.org/assets/2016-tb-retreat_edited-56-150x150.jpg" alt="2016 Trailblazer Retreat Pictures" title="2016 Trailblazer Retreat Pictures" width="150" height="150" />\\n            </a>\\n          </li>\\n          <li class="wGallery">\\n            <a href="http://covenantpines.org/2016-trailblazer-retreat-pictures/">\\n              <img src="http://covenantpines.org/assets/2016-tb-retreat_edited-55-150x150.jpg" alt="2016 Trailblazer Retreat Pictures" title="2016 Trailblazer Retreat Pictures" width="150" height="150" />\\n            </a>\\n          </li>\\n          <li class="wGallery">\\n            <a href="http://covenantpines.org/2016-trailblazer-retreat-pictures/">\\n              <img src="http://covenantpines.org/assets/2016-tb-retreat_edited-54-150x150.jpg" alt="2016 Trailblazer Retreat Pictures" title="2016 Trailblazer Retreat Pictures" width="150" height="150" />\\n            </a>\\n          </li>\\n          <li class="wGallery">\\n            <a href="http://covenantpines.org/2016-trailblazer-retreat-pictures/">\\n              <img src="http://covenantpines.org/assets/2016-tb-retreat_edited-53-150x150.jpg" alt="2016 Trailblazer Retreat Pictures" title="2016 Trailblazer Retreat Pictures" width="150" height="150" />\\n            </a>\\n          </li>\\n          <li class="wGallery">\\n            <a href="http://covenantpines.org/2016-trailblazer-retreat-pictures/">\\n              <img src="http://covenantpines.org/assets/2016-tb-retreat_edited-52-150x150.jpg" alt="2016 Trailblazer Retreat Pictures" title="2016 Trailblazer Retreat Pictures" width="150" height="150" />\\n            </a>\\n          </li>\\n          <li class="wGallery">\\n            <a href="http://covenantpines.org/2016-trailblazer-retreat-pictures/">\\n              <img src="http://covenantpines.org/assets/2016-tb-retreat_edited-51-150x150.jpg" alt="2016 Trailblazer Retreat Pictures" title="2016 Trailblazer Retreat Pictures" width="150" height="150" />\\n            </a>\\n          </li>\\n          <li class="wGallery">\\n            <a href="http://covenantpines.org/2016-trailblazer-retreat-pictures/">\\n              <img src="http://covenantpines.org/assets/2016-tb-retreat_edited-50-150x150.jpg" alt="2016 Trailblazer Retreat Pictures" title="2016 Trailblazer Retreat Pictures" width="150" height="150" />\\n            </a>\\n          </li>\\n          <li class="wGallery">\\n            <a href="http://covenantpines.org/2016-trailblazer-retreat-pictures/">\\n              <img src="http://covenantpines.org/assets/2016-tb-retreat_edited-49-150x150.jpg" alt="2016 Trailblazer Retreat Pictures" title="2016 Trailblazer Retreat Pictures" width="150" height="150" />\\n            </a>\\n          </li>\\n          <li class="wGallery">\\n            <a href="http://covenantpines.org/2016-trailblazer-retreat-pictures/">\\n              <img src="http://covenantpines.org/assets/2016-tb-retreat_edited-48-150x150.jpg" alt="2016 Trailblazer Retreat Pictures" title="2016 Trailblazer Retreat Pictures" width="150" height="150" />\\n            </a>\\n          </li>\\n        </ul>\\n      </div>\\n    </section>\\n    <section id="quick-links-widget" class="widget-3 widget widget_nav_menu">\\n      <div class="widget-3 widget-inner">\\n        <h3>Quick Links</h3>\\n        <div class="menu-footer-quick-links-container">\\n          <ul id="menu-footer-quick-links" class="menu">\\n            <li id="menu-item-489" class="menu-item menu-item-type-custom menu-item-object-custom menu-item-489">\\n              <a href="">About Us</a>\\n            </li>\\n            <li id="menu-item-612" class="menu-item menu-item-type-taxonomy menu-item-object-category menu-item-612">\\n              <a href="">Media Gallery</a>\\n            </li>\\n            <li id="menu-item-492" class="menu-item menu-item-type-custom menu-item-object-custom menu-item-492">\\n              <a href="">Donate</a>\\n            </li>\\n            <li id="menu-item-70" class="menu-item menu-item-type-post_type menu-item-object-page menu-item-70">\\n              \', escape=False)\nresponse.write(A(\'Home\', callback=URL(\'/\')))\nresponse.write(\'\\n            </li>\\n          </ul>\\n        </div>\\n      </div>\\n    </section>\\n    <section id="contact-info-widget" class="widget-4 widget widget_text">\\n      <div class="widget-4 widget-inner">\\n        <h3>Special Camps Camp</h3>\\n        <div class="textwidget">\\n          <p>\\n            26W 684 Lindsey Ave.<br/>\\n            Winfield, IL 60190<br/>\\n            630.690.0944<br/>\\n            mcdcolleen@yahoo.com\\n          </p>\\n          <p>&copy; 2016 Special Camps Summer Camp,<br/>All Rights Reserved</p>\\n        </div>\\n  \\t\\t</div>\\n    </section>\\n  </footer>\\n</div><!-- end #content-info-wrapper -->\\n</body>\\n</html>\\n\', escape=False)'
p7
sS'snapshot'
p8
(dp9
sS'traceback'
p10
S'Traceback (most recent call last):\n  File "/Users/habibi/web2py/gluon/restricted.py", line 227, in restricted\n    exec ccode in environment\n  File "/Users/habibi/web2py/applications/camp/views/default/user.html", line 54, in <module>\n  File "/Users/habibi/web2py/gluon/html.py", line 330, in URL\n    raise SyntaxError(\'not enough information to build the url (%s %s %s)\' % (application, controller, function))\nSyntaxError: not enough information to build the url (camp default )\n'
p11
s.