(dp1
S'output'
p2
S"<type 'exceptions.AttributeError'> 'Table' object has no attribute 'auth_user'"
p3
sS'layer'
p4
S'/Users/habibi/web2py/applications/camp/models/db.py'
p5
sS'code'
p6
S'db = DAL(\'sqlite://storage.sqlite\')\n\nfrom gluon.tools import *\nauth = Auth(db)\n\n#from gluon.contrib.login_methods.rpx_account import RPXAccount\n#auth.settings.actions_disabled=[\'register\',\'change_password\',\'request_reset_password\']\n#auth.settings.login_form = RPXAccount(request,\n#     api_key=\'569ddf3abd8a0704347caa9e8bb7370a14905b04 \',\n#     domain=\'localhost:8000/blogging_platform3/default/index\',\n#     url = "http://localhost:8000/blogging_platform3/%s/default/user/login" % request.application)\n\ndb.define_table("image",\n    Field("title", unique=True),\n    Field("file", "upload"),\n    format = "%(title)s")\n\ndb.define_table(\'document\',\n    Field(\'name\'),\n    Field(\'file\', \'upload\'),\n    Field(\'created_on\', \'datetime\', default=request.now),\n    format=\'%(name)s\')\n\nauth.define_tables(username=False)\n\ndb.define_table(\'page\',\n    Field(\'title\'),\n    Field(\'body\', \'text\'),\n    Field(\'created_on\', \'datetime\', default=request.now),\n    Field(\'created_by\', \'reference auth_user\', readable=False, writable=False))\n\ndb.define_table(\'blogpost\',\n    Field(\'title\'),\n    Field(\'body\', \'text\'),\n    Field(\'tags\', \'list:string\'),\n    Field(\'photo_id\', \'reference image\'),\n    Field(\'document_id\', \'reference document\', readable=False, writable=False),\n    Field(\'created_on\', \'datetime\', default=request.now),\n    Field(\'blogpage_id\', \'reference page\', readable=False, writable=False))\n\ndb.define_table(\'comment\',\n    Field(\'body\', \'text\'),\n    Field(\'created_by\'),\n    Field(\'created_on\', \'datetime\', default=request.now),\n    Field(\'blogpost_id\', \'reference blogpost\', readable=False, writable=False))\n\n\ndb.document.name.requires = IS_NOT_IN_DB(db, \'document.name\')\ndb.document.created_on.readable = db.document.created_on.writable = False\n\ndb.comment.body.requires = IS_NOT_EMPTY()\ndb.comment.created_by.requires = IS_NOT_EMPTY()\ndb.comment.created_on.readable = db.comment.created_on.writable = False\ndb.comment.blogpost_id.requires = IS_IN_DB(db,db.blogpost)\n\ndb.blogpost.title.requires = IS_NOT_EMPTY()\ndb.blogpost.body.requires = IS_NOT_EMPTY()\ndb.blogpost.blogpage_id.requires = IS_IN_DB(db,db.page)\ndb.blogpost.photo_id.readable = db.blogpost.photo_id.writable = False\ndb.blogpost.created_on.readable = db.blogpost.created_on.writable = False\n\ndb.page.title.requires = IS_NOT_EMPTY()\ndb.page.body.reference = IS_NOT_EMPTY()\ndb.page.created_by.requires = IS_IN_DB(db, db.auth_user)\ndb.page.created_on.readable = db.page.created_on.writable = False\n\nauth.settings.registration_requires_verification = False\n\n# begin special camps information\n\n\ndb.define_table(\'staff\',\n    # Field(\'auth_user\', \'reference auth_user\', readable=False, writable=False),\n    # Field(\'created_on\', \'datetime\', default=request.now),\n    Field(\'first_name\', requires=IS_NOT_EMPTY()),\n    Field(\'middle_name\', \'text\'),\n    Field(\'last_name\', requires=IS_NOT_EMPTY()),\n    Field(\'gender\', requires=IS_IN_SET([\'male\', \'female\'], zero=T(\'choose one\'), error_message=\'must choose one\')),\n    Field(\'dateofbirth\', type=\'date\'),\n    Field(\'street_address\', requires=IS_NOT_EMPTY()),\n    Field(\'city\', requires=IS_NOT_EMPTY()),\n    Field(\'state\', requires=IS_NOT_EMPTY()),\n    Field(\'zipcode\', requires=IS_MATCH(\'^\\d{5}(-\\d{4})?$\', error_message=\'not a zip code\')),\n    Field(\'day_phone\', requires=IS_MATCH(\'^1?((-)\\d{3}-?|\\(\\d{3}\\))\\d{3}-?\\d{4}$\', error_message=\'not a phone number\')),\n    Field(\'evening_phone\', requires=IS_MATCH(\'^1?((-)\\d{3}-?|\\(\\d{3}\\))\\d{3}-?\\d{4}$\', error_message=\'not a phone number\')),\n    Field(\'prefered_name\', requires=IS_NOT_EMPTY()),\n    Field(\'shirt_size\', requires=IS_IN_SET([\'adult_s\', \'adult_m\', \'adult_l\', \'adult_xl\', \'adult_2xl\', \'adult_3xl\'], zero=T(\'choose one\'), error_message=\'must choose one\')),\n    Field(\'email\', requires=IS_EMAIL(error_message=\'invalid email!\')),\n    Field(\'drivers_license_or_ssn\', requires=IS_NOT_EMPTY()),\n    Field(\'emergency_contact\', requires=IS_NOT_EMPTY()),\n    Field(\'emergency_contact_relationship\', requires=IS_NOT_EMPTY()),\n    Field(\'emergency_contact_primary_phone\', requires=IS_MATCH(\'^1?((-)\\d{3}-?|\\(\\d{3}\\))\\d{3}-?\\d{4}$\', error_message=\'not a phone number\')),\n    Field(\'emergency_contact_secondary_phone\', \'text\'),\n    Field(\'convicted_child_related\', \'boolean\'),\n    Field(\'illegal_drugs\', \'boolean\'),\n    Field(\'consent_sig_background_check\', requires=IS_NOT_EMPTY()),\n    Field(\'consent_sig_date\', default=request.now),\n    Field(\'prefered_position\', requires=IS_IN_SET([\'nurse\', \'activity leader\', \'cabin parent\'], zero=T(\'choose one\'), error_message=\'must choose one\')),\n    Field(\'can_swim\', \'boolean\'),\n    Field(\'describe_horse_exp\', requires=IS_NOT_EMPTY()),\n    Field(\'special_training\', requires=IS_NOT_EMPTY()),\n    Field(\'prev_experience_special_needs\', requires=IS_NOT_EMPTY()),\n    Field(\'has_disability\', \'boolean\',\n        Field(\'describe_disability\', requires=IS_NOT_EMPTY())),\n    Field(\'taking_prescriptions\', \'boolean\'),\n    Field(\'date_preference\', requires=IS_IN_SET([\'June 5-10 Teens and Adults\', \'June 12-17 Children and Teens\'], zero=T(\'choose one\'), error_message=\'must choose one\')),\n    Field(\'willing_to_consider_other_session\', \'boolean\'),\n    Field(\'part_time_dates\', \'text\'),\n    Field(\'license_revoked\', \'boolean\'),\n    Field(\'license_signature\', requires=IS_NOT_EMPTY()),\n    Field(\'license_date\', type=\'date\'),\n    Field(\'first_reference_name\', requires=IS_NOT_EMPTY()),\n    Field(\'first_reference_relationship\', requires=IS_NOT_EMPTY()),\n    Field(\'first_best_time_call\', \'text\'),\n    Field(\'first_reference_phone\', requires=IS_MATCH(\'^1?((-)\\d{3}-?|\\(\\d{3}\\))\\d{3}-?\\d{4}$\', error_message=\'not a phone number\')),\n    Field(\'second_reference_name\', requires=IS_NOT_EMPTY()),\n    Field(\'second_reference_relationship\', requires=IS_NOT_EMPTY()),\n    Field(\'second_best_time_call\', \'text\'),\n    Field(\'second_reference_phone\', requires=IS_MATCH(\'^1?((-)\\d{3}-?|\\(\\d{3}\\))\\d{3}-?\\d{4}$\', error_message=\'not a phone number\')),\n    Field(\'consent_signature\', requires=IS_NOT_EMPTY()),\n    Field(\'waiver_signature\', requires=IS_NOT_EMPTY()),\n    Field(\'waiver_date\', default=request.now),\n    Field(\'health_policy_issued_to\', requires=IS_NOT_EMPTY()),\n    Field(\'policy_number\', requires=IS_NOT_EMPTY()),\n    Field(\'policy_group_number\', requires=IS_NOT_EMPTY()))\n\ndb.staff.auth_user.requires = IS_IN_DB(db, db.auth_user)\n\n\ndb.define_table(\'counselor\',\n    # Field(\'auth_user\', \'reference auth_user\', readable=False, writable=False),\n    Field(\'created_on\', \'datetime\', default=request.now, readable=False, writable=False),\n    Field(\'first_name\', requires=IS_NOT_EMPTY()),\n    Field(\'middle_name\', \'text\'),\n    Field(\'last_name\', requires=IS_NOT_EMPTY()),\n    Field(\'gender\', requires=IS_IN_SET([\'male\', \'female\'], zero=T(\'choose one\'), error_message=\'must choose one\')),\n    Field(\'dateofbirth\', type=\'date\'),\n    Field(\'street_address\', requires=IS_NOT_EMPTY()),\n    Field(\'city\', requires=IS_NOT_EMPTY()),\n    Field(\'state\', requires=IS_NOT_EMPTY()),\n    Field(\'zipcode\', requires=IS_MATCH(\'^\\d{5}(-\\d{4})?$\', error_message=\'not a zip code\')),\n    Field(\'phone\', requires=IS_MATCH(\'^1?((-)\\d{3}-?|\\(\\d{3}\\))\\d{3}-?\\d{4}$\', error_message=\'not a phone number\')),\n    Field(\'shirt_size\', requires=IS_IN_SET([\'adult_s\', \'adult_m\', \'adult_l\', \'adult_xl\', \'adult_2xl\', \'adult_3xl\'], zero=T(\'choose one\'), error_message=\'must choose one\')),\n    Field(\'nickname\', \'text\'),\n    Field(\'email\',requires=IS_EMAIL(error_message=\'invalid email!\')),\n    Field(\'parents_names\', requires=IS_NOT_EMPTY()),\n    Field(\'home_phone\', \'text\'),\n    Field(\'parents_phone\', requires=IS_MATCH(\'^1?((-)\\d{3}-?|\\(\\d{3}\\))\\d{3}-?\\d{4}$\', error_message=\'not a phone number\')),\n    Field(\'emergency_contact\', requires=IS_NOT_EMPTY()),\n    Field(\'emergency_contact_phone\', requires=IS_MATCH(\'^1?((-)\\d{3}-?|\\(\\d{3}\\))\\d{3}-?\\d{4}$\', error_message=\'not a phone number\')),\n    Field(\'health_insurance_company\', requires=IS_NOT_EMPTY()),\n    Field(\'policy_number\', requires=IS_NOT_EMPTY()),\n    Field(\'convicted_child_related\', \'boolean\'),\n    Field(\'illegal_drugs\', \'boolean\'),\n    Field(\'convicted_felony\', \'boolean\'),\n    Field(\'over_18\', \'boolean\',\n        Field(\'drivers_license\', requires=IS_NOT_EMPTY())),\n    Field(\'consent_sig_background_check\', requires=IS_NOT_EMPTY()),\n    Field(\'consent_sig_date\', default=request.now, readable=False, writable=False),\n    Field(\'high_school\', requires=IS_NOT_EMPTY()),\n    Field(\'grade\', requires=IS_NOT_EMPTY()),\n    Field(\'hobbies\', requires=IS_NOT_EMPTY()),\n    Field(\'special_training\', \'text\'),\n    Field(\'can_swim\', \'boolean\'),\n    Field(\'experience_with_disabilities\', requires=IS_NOT_EMPTY()),\n    Field(\'previous_camp_counselor\', \'boolean\'),\n    Field(\'has_disability\', \'boolean\',\n        Field(\'describe_disability\', requires=IS_NOT_EMPTY())),\n    Field(\'taking_prescriptions\', \'boolean\'),\n    Field(\'reason_for_volunteering\', requires=IS_NOT_EMPTY()),\n    Field(\'date_preference\', requires=IS_IN_SET([\'June 5-10 Teens and Adults\', \'June 12-17 Children and Teens\'], zero=T(\'choose one\'), error_message=\'must choose one\')),\n    Field(\'willing_to_consider_other_session\', \'boolean\'),\n    Field(\'transportation\', requires=IS_IN_SET([\n        \'I\\\'d like to take the bus to/from White pines. The bus stops at Regal Theatre in Warrenville and Plano High in Plano IL.\',\n        \'I will arrange for my own transportation to and from White Pines Ranch in Oregon, IL\'], zero=T(\'choose one\'), error_message=\'must choose one\')),\n    Field(\'first_reference_name\', requires=IS_NOT_EMPTY()),\n    Field(\'first_reference_relationship\', requires=IS_NOT_EMPTY()),\n    Field(\'first_best_time_call\', \'text\'),\n    Field(\'first_reference_phone\', requires=IS_MATCH(\'^1?((-)\\d{3}-?|\\(\\d{3}\\))\\d{3}-?\\d{4}$\', error_message=\'not a phone number\')),\n    Field(\'second_reference_name\', requires=IS_NOT_EMPTY()),\n    Field(\'second_reference_relationship\', requires=IS_NOT_EMPTY()),\n    Field(\'second_best_time_call\', \'text\'),\n    Field(\'second_reference_phone\', requires=IS_MATCH(\'^1?((-)\\d{3}-?|\\(\\d{3}\\))\\d{3}-?\\d{4}$\', error_message=\'not a phone number\')),\n    Field(\'consent_signature\', requires=IS_NOT_EMPTY),\n    Field(\'waiver_conselor_sig\', requires=IS_NOT_EMPTY()),\n    Field(\'waiver_parent_sig\', requires=IS_NOT_EMPTY()),\n    Field(\'waiver_date\', default=request.now))\n\n\ndb.counselor.auth_user.requires = IS_IN_DB(db, db.auth_user)\n\n# db.define_table(\'camper\',\n#     Field(\'created_by\', \'reference auth_user\', readable=False, writable=False),\n#     Field(\'first_name\', requires=IS_NOT_EMPTY()),\n#     Field(\'last_name\', requires=IS_NOT_EMPTY()),\n#     Field(\'dateofbirth\', requires=IS_DATE(format=T(\'%Y-%m-%d\'), error_message=\'must be YYYY-MM-DD!\')),\n#     Field(\'gender\', requires=IS_IN_SET([\'male\', \'female\'], zero=T(\'choose one\'), error_message=\'must choose one\')),\n#     Field(\'street_address\', requires=IS_NOT_EMPTY()),\n#     Field(\'city\', requires=IS_NOT_EMPTY()),\n#     Field(\'state\', requires=IS_NOT_EMPTY()),\n#     Field(\'zipcode\', requires=IS_MATCH(\'^\\d{5}(-\\d{4})?$\', error_message=\'not a zip code\')),\n#     Field(\'emergency_contact\', requires=IS_NOT_EMPTY()),\n#     Field(\'emergency_contact_phone\', requires=IS_MATCH(\'^1?((-)\\d{3}-?|\\(\\d{3}\\))\\d{3}-?\\d{4}$\', error_message=\'not a phone number\')),\n#     Field(\'health_insurance_company\', requires=IS_NOT_EMPTY()),\n#     Field(\'policy_number\', requires=IS_NOT_EMPTY()),\n#     Field(\'shirt_size\', requires=IS_IN_SET([\'child_s\', \'child_m\', \'child_l\', \'adult_s\', \'adult_m\', \'adult_l\', \'adult_xl\', \'adult_2xl\', \'adult_3xl\'], zero=T(\'choose one\'), error_message=\'must choose one\')))\n\n# db.define_table(\'guardian\'\n#     Field(\'camper_id\', \'reference camper\', readable=False, writable=False),\n#     Field(\'primary_full_name\', requires=IS_NOT_EMPTY()),\n#     Field(\'primary_phone\', requires=IS_MATCH(\'^1?((-)\\d{3}-?|\\(\\d{3}\\))\\d{3}-?\\d{4}$\', error_message=\'not a phone number\')),\n#     Field(\'second_phone\', requires=IS_MATCH(\'^1?((-)\\d{3}-?|\\(\\d{3}\\))\\d{3}-?\\d{4}$\', error_message=\'not a phone number\')),\n#     Field(\'street_address\', requires=IS_NOT_EMPTY()),\n#     Field(\'city\', requires=IS_NOT_EMPTY()),\n#     Field(\'state\', requires=IS_NOT_EMPTY()),\n#     Field(\'zipcode\', requires=IS_MATCH(\'^\\d{5}(-\\d{4})?$\', error_message=\'not a zip code\')),\n#     Field(\'email\', requires=IS_EMAIL(error_message=\'invalid email!\')),\n#     Field(\'relationship\', requires=IS_NOT_EMPTY()),\n#     Field(\'secondary_guardian\', \'boolean\',\n#         Field(\'secondary_full_name\', requires=IS_NOT_EMPTY()),\n#         Field(\'secondary_primary_phone\', requires=IS_MATCH(\'^1?((-)\\d{3}-?|\\(\\d{3}\\))\\d{3}-?\\d{4}$\', error_message=\'not a phone number\')),\n#         Field(\'secondary_second_phone\', requires=IS_MATCH(\'^1?((-)\\d{3}-?|\\(\\d{3}\\))\\d{3}-?\\d{4}$\', error_message=\'not a phone number\')),\n#         Field(\'secondary_email\', requires=IS_EMAIL(error_message=\'invalid email!\')),\n#         Field(\'secondary_relationship\', requires=IS_NOT_EMPTY())))\n\n# db.define_table(\'camper_general_medical_information\',\n#     Field(\'camper_id\', \'reference camper\', readable=False, writable=False),\n#     Field(\'medical_diagnosis\', requires=IS_NOT_EMPTY()),\n#     Field(\'metal_age_ability\', requires=IS_NOT_EMPTY()),\n#     Field(\'seizure_type\', requires=IS_NOT_EMPTY()),\n#     Field(\'recovery_time\', requires=IS_NOT_EMPTY()),\n#     Field(\'preexisting_medical_conditions\', requires=IS_NOT_EMPTY()),\n#     Field(\'psychiatric_disorders\', requires=IS_NOT_EMPTY()),\n#     Field(\'walks_independently\', \'boolean\'),\n#     Field(\'uses_cane_or_walker\', \'boolean\'),\n#     Field(\'uses_wheelchair\', \'boolean\'),\n#     Field(\'needs_transfer_standby_or_assist\', \'boolean\'),\n#     Field(\'is_independent_toileting\', \'boolean\'),\n#     Field(\'has_bowel_and_bladder_control\', \'boolean\'),\n#     Field(\'wears_depends_or_diaper\', \'boolean\'),\n#     Field(\'describe_needs\', \'text\'))\n\n# db.define_table(\'camper_eating\',\n#     Field(\'camper_id\', \'reference camper\', readable=False, writable=False),\n#     Field(\'food_alergies\', \'text\'),\n#     Field(\'limit_intake_of_certain_foods\', \'text\'),\n#     Field(\'watch_for_overeating\', \'boolean\'),\n#     Field(\'special_diet\', \'text\'),\n#     Field(\'assistance_needed\', requires=IS_IN_SET([\'no help\', \'some help\', \'all help\', \'serve\', \'cut\'], zero=T(\'choose one\'), error_message=\'must choose one\')))\n\n# db.define_table(\'camper_behavior\',\n#     Field(\'camper_id\', \'reference camper\', readable=False, writable=False),\n#     Field(\'behavioral_problems\', \'boolean\'),\n#     Field(\'describe_frequency\', \'text\'),\n#     Field(\'describe_management_techniques\', \'text\'),\n#     Field(\'activities_hobbies\', \'text\'),\n#     Field(\'horseback_riding_experience\', requires=IS_NOT_EMPTY())))\n\n# db.define_table(\'camper_transportation\',\n#     Field(\'camper_id\', \'reference camper\', readable=False, writable=False),\n#     Field(\'child_pickup\', requires=IS_IN_SET([\n#         \'I\\\'ll pick up my child Friday at the campground between 12 and 1pm\',\n#         \'I\\\'d like my child to take a coach bus to Regal Cantera Theatre in Warrenville near I88\',\n#         \'I\\\'d like my chld to take a coach bus to Plano High School in Plano IL\'],\n#         zero=T(\'please choose your preference\'),\n#         error_message=\'must choose one\')))\n\n# db.define_table(\'camper_new_info\',\n#     Field(\'camper_id\', \'reference camper\', readable=False, writable=False),\n#     Field(\'new_to_camp\', \'boolean\',\n#         Field(\'school_work_name\', requires=IS_NOT_EMPTY()),\n#         Field(\'town\', requires=IS_NOT_EMPTY()),\n#         Field(\'teacher_boss\', requires=IS_NOT_EMPTY()),\n#         Field(\'reference_phone\', requires=IS_MATCH(\'^1?((-)\\d{3}-?|\\(\\d{3}\\))\\d{3}-?\\d{4}$\', error_message=\'not a phone number\')),\n#         Field(\'been_away_without_family\', \'boolean\'),\n#         Field(\'homesickness_anticipated\', \'boolean\'),\n#         Field(\'previous_overnight_camp\', \'boolean\'),\n#         Field(\'camp_frequency\', \'boolean\'),\n#         Field(\'where_learn_about_camp\', requires=IS_NOT_EMPTY())))\n\n# db.define_table(\'camper_camp_parent_questionnaire\',\n#     Field(\'camper_id\', \'reference camper\', readable=False, writable=False),\n#     Field(\'needs_nightlight\', \'boolean\'),\n#     Field(\'needs_bedrails\', \'boolean\'),\n#     Field(\'bathroom_during_night\', \'boolean\'),\n#     Field(\'wanders_at_night\', \'boolean\'),\n#     Field(\'wears_pajamas_helmet_braces_at_bedtime\', \'text\'),\n#     Field(\'can_sleep_on_top_bunk_bed\', \'boolean\'),\n#     Field(\'showering\', requires=IS_IN_SET([\'total assistance\', \'some assistance\', \'just supervise\', \'no help\'], zero=T(\'choose one\'), error_message=\'must choose one\')),\n#     Field(\'washing_face_hands\', [\'total assistance\', \'some assistance\', \'just supervise\', \'no help\']),\n#     Field(\'brushing_teeth\', requires=IS_IN_SET([\'total assistance\', \'some assistance\', \'just supervise\', \'no help\'], zero=T(\'choose one\'), error_message=\'must choose one\')),\n#     Field(\'dressing\', requires=IS_IN_SET([\'total assistance\', \'some assistance\', \'just supervise\', \'no help\'], zero=T(\'choose one\'), error_message=\'must choose one\')),\n#     Field(\'undressing\', requires=IS_IN_SET([\'total assistance\', \'some assistance\', \'just supervise\', \'no help\'], zero=T(\'choose one\'), error_message=\'must choose one\')),\n#     Field(\'menstrual_care\', requires=IS_IN_SET([\'total assistance\', \'some assistance\', \'just supervise\', \'no help\'], zero=T(\'choose one\'), error_message=\'must choose one\')),\n#     Field(\'special_instructions\', \'text\'),\n#     Field(\'regular_bedtime\', \'text\'),\n#     Field(\'regular_wakeup_time\', \'text\'),\n#     Field(\'takes_naps\', \'boolean\'),\n#     Field(\'usual_bedtime_routine\', \'text\'),\n#     Field(\'encouraging_good_behavior\', \'text\'),\n#     Field(\'limiting_poor_behavior\', \'text\'),\n#     Field(\'additional_suggestions\', \'text\'),\n#     Field(\'contact_if_issues\', requires=IS_NOT_EMPTY()),\n#     Field(\'contact_issues_phone\', requires=IS_MATCH(\'^1?((-)\\d{3}-?|\\(\\d{3}\\))\\d{3}-?\\d{4}$\', error_message=\'not a phone number\')),\n#     Field(\'fears_need_to_know\', \'text\'),\n#     Field(\'friends_paired_with_names_order_by_preference\', \'text\'),\n#     Field(\'other_friends_family\', \'text\'))\n\n'
p7
sS'snapshot'
p8
(dp9
S'exception'
p10
(dp11
S'__hash__'
p12
S"<method-wrapper '__hash__' of exceptions.AttributeError object>"
p13
sS'__setattr__'
p14
S"<method-wrapper '__setattr__' of exceptions.AttributeError object>"
p15
sS'__reduce_ex__'
p16
S'<built-in method __reduce_ex__ of exceptions.AttributeError object>'
p17
sS'__getslice__'
p18
S"<method-wrapper '__getslice__' of exceptions.AttributeError object>"
p19
sS'__getitem__'
p20
S"<method-wrapper '__getitem__' of exceptions.AttributeError object>"
p21
sS'__setstate__'
p22
S'<built-in method __setstate__ of exceptions.AttributeError object>'
p23
sS'args'
p24
S'("\'Table\' object has no attribute \'auth_user\'",)'
p25
sS'__reduce__'
p26
S'<built-in method __reduce__ of exceptions.AttributeError object>'
p27
sS'__str__'
p28
S"<method-wrapper '__str__' of exceptions.AttributeError object>"
p29
sS'__format__'
p30
S'<built-in method __format__ of exceptions.AttributeError object>'
p31
sS'__getattribute__'
p32
S"<method-wrapper '__getattribute__' of exceptions.AttributeError object>"
p33
sS'__class__'
p34
S"<type 'exceptions.AttributeError'>"
p35
sS'__unicode__'
p36
S'<built-in method __unicode__ of exceptions.AttributeError object>'
p37
sS'__delattr__'
p38
S"<method-wrapper '__delattr__' of exceptions.AttributeError object>"
p39
sS'__subclasshook__'
p40
S'<built-in method __subclasshook__ of type object>'
p41
sS'__repr__'
p42
S"<method-wrapper '__repr__' of exceptions.AttributeError object>"
p43
sS'__dict__'
p44
S'{}'
p45
sS'__sizeof__'
p46
S'<built-in method __sizeof__ of exceptions.AttributeError object>'
p47
sS'__doc__'
p48
S"'Attribute not found.'"
p49
sS'__init__'
p50
S"<method-wrapper '__init__' of exceptions.AttributeError object>"
p51
sS'__new__'
p52
S'<built-in method __new__ of type object>'
p53
ssS'evalue'
p54
S"'Table' object has no attribute 'auth_user'"
p55
sS'request'
p56
cgluon.html
XML_unpickle
p57
(S's>`\x00\x00<div><table><tr><td style="font-weight:bold;vertical-align:top;">ajax</td><td style="vertical-align:top;">:</td><td><div>False</div></td></tr><tr><td style="font-weight:bold;vertical-align:top;">application</td><td style="vertical-align:top;">:</td><td><div>camp</div></td></tr><tr><td style="font-weight:bold;vertical-align:top;">args</td><td style="vertical-align:top;">:</td><td><div><table><tr><td><div>db</div></td></tr><tr><td><div>auth_user</div></td></tr><tr><td><div>2</div></td></tr></table></div></td></tr><tr><td style="font-weight:bold;vertical-align:top;">cid</td><td style="vertical-align:top;">:</td><td><div>None</div></td></tr><tr><td style="font-weight:bold;vertical-align:top;">client</td><td style="vertical-align:top;">:</td><td><div>127.0.0.1</div></td></tr><tr><td style="font-weight:bold;vertical-align:top;">controller</td><td style="vertical-align:top;">:</td><td><div>appadmin</div></td></tr><tr><td style="font-weight:bold;vertical-align:top;">cookies</td><td style="vertical-align:top;">:</td><td><div><table><tr><td style="font-weight:bold;vertical-align:top;">session_id_admin</td><td style="vertical-align:top;">:</td><td><div>127.0.0.1-9d4353a0-c828-40fe-82b5-811e489506e2<table><tr><td style="font-weight:bold;vertical-align:top;">comment</td><td style="vertical-align:top;">:</td><td><div></div></td></tr><tr><td style="font-weight:bold;vertical-align:top;">domain</td><td style="vertical-align:top;">:</td><td><div></div></td></tr><tr><td style="font-weight:bold;vertical-align:top;">expires</td><td style="vertical-align:top;">:</td><td><div></div></td></tr><tr><td style="font-weight:bold;vertical-align:top;">httponly</td><td style="vertical-align:top;">:</td><td><div></div></td></tr><tr><td style="font-weight:bold;vertical-align:top;">max-age</td><td style="vertical-align:top;">:</td><td><div></div></td></tr><tr><td style="font-weight:bold;vertical-align:top;">path</td><td style="vertical-align:top;">:</td><td><div></div></td></tr><tr><td style="font-weight:bold;vertical-align:top;">secure</td><td style="vertical-align:top;">:</td><td><div></div></td></tr><tr><td style="font-weight:bold;vertical-align:top;">version</td><td style="vertical-align:top;">:</td><td><div></div></td></tr></table></div></td></tr><tr><td style="font-weight:bold;vertical-align:top;">session_id_camp</td><td style="vertical-align:top;">:</td><td><div>127.0.0.1-3782bc05-8379-4591-b816-128c5e671596<table><tr><td style="font-weight:bold;vertical-align:top;">comment</td><td style="vertical-align:top;">:</td><td><div></div></td></tr><tr><td style="font-weight:bold;vertical-align:top;">domain</td><td style="vertical-align:top;">:</td><td><div></div></td></tr><tr><td style="font-weight:bold;vertical-align:top;">expires</td><td style="vertical-align:top;">:</td><td><div></div></td></tr><tr><td style="font-weight:bold;vertical-align:top;">httponly</td><td style="vertical-align:top;">:</td><td><div></div></td></tr><tr><td style="font-weight:bold;vertical-align:top;">max-age</td><td style="vertical-align:top;">:</td><td><div></div></td></tr><tr><td style="font-weight:bold;vertical-align:top;">path</td><td style="vertical-align:top;">:</td><td><div></div></td></tr><tr><td style="font-weight:bold;vertical-align:top;">secure</td><td style="vertical-align:top;">:</td><td><div></div></td></tr><tr><td style="font-weight:bold;vertical-align:top;">version</td><td style="vertical-align:top;">:</td><td><div></div></td></tr></table></div></td></tr><tr><td style="font-weight:bold;vertical-align:top;">session_id_welcome</td><td style="vertical-align:top;">:</td><td><div>127.0.0.1-4f7a1acd-1f50-47c3-bcc7-f3004d73cc84<table><tr><td style="font-weight:bold;vertical-align:top;">comment</td><td style="vertical-align:top;">:</td><td><div></div></td></tr><tr><td style="font-weight:bold;vertical-align:top;">domain</td><td style="vertical-align:top;">:</td><td><div></div></td></tr><tr><td style="font-weight:bold;vertical-align:top;">expires</td><td style="vertical-align:top;">:</td><td><div></div></td></tr><tr><td style="font-weight:bold;vertical-align:top;">httponly</td><td style="vertical-align:top;">:</td><td><div></div></td></tr><tr><td style="font-weight:bold;vertical-align:top;">max-age</td><td style="vertical-align:top;">:</td><td><div></div></td></tr><tr><td style="font-weight:bold;vertical-align:top;">path</td><td style="vertical-align:top;">:</td><td><div></div></td></tr><tr><td style="font-weight:bold;vertical-align:top;">secure</td><td style="vertical-align:top;">:</td><td><div></div></td></tr><tr><td style="font-weight:bold;vertical-align:top;">version</td><td style="vertical-align:top;">:</td><td><div></div></td></tr></table></div></td></tr></table></div></td></tr><tr><td style="font-weight:bold;vertical-align:top;">env</td><td style="vertical-align:top;">:</td><td><div><table><tr><td style="font-weight:bold;vertical-align:top;">HTTP_ACCEPT</td><td style="vertical-align:top;">:</td><td><div>text/html,application/xhtml+xml,application/xml;q=0.9,image/webp,*/*;q=0.8</div></td></tr><tr><td style="font-weight:bold;vertical-align:top;">HTTP_ACCEPT_ENCODING</td><td style="vertical-align:top;">:</td><td><div>gzip, deflate, sdch</div></td></tr><tr><td style="font-weight:bold;vertical-align:top;">HTTP_ACCEPT_LANGUAGE</td><td style="vertical-align:top;">:</td><td><div>en-US,en;q=0.8,ar;q=0.6</div></td></tr><tr><td style="font-weight:bold;vertical-align:top;">HTTP_CONNECTION</td><td style="vertical-align:top;">:</td><td><div>keep-alive</div></td></tr><tr><td style="font-weight:bold;vertical-align:top;">HTTP_COOKIE</td><td style="vertical-align:top;">:</td><td><div>session_id_welcome=127.0.0.1-4f7a1acd-1f50-47c3-bcc7-f3004d73cc84; session_id_camp=127.0.0.1-3782bc05-8379-4591-b816-128c5e671596; session_id_admin=127.0.0.1-9d4353a0-c828-40fe-82b5-811e489506e2</div></td></tr><tr><td style="font-weight:bold;vertical-align:top;">HTTP_DNT</td><td style="vertical-align:top;">:</td><td><div>1</div></td></tr><tr><td style="font-weight:bold;vertical-align:top;">HTTP_HOST</td><td style="vertical-align:top;">:</td><td><div>localhost:8000</div></td></tr><tr><td style="font-weight:bold;vertical-align:top;">HTTP_REFERER</td><td style="vertical-align:top;">:</td><td><div>http://localhost:8000/camp/appadmin/select/db</div></td></tr><tr><td style="font-weight:bold;vertical-align:top;">HTTP_UPGRADE_INSECURE_REQUESTS</td><td style="vertical-align:top;">:</td><td><div>1</div></td></tr><tr><td style="font-weight:bold;vertical-align:top;">HTTP_USER_AGENT</td><td style="vertical-align:top;">:</td><td><div>Mozilla/5.0 (Macintosh; Intel Mac OS X 10_11_2) AppleWebKit/537.36 (KHTML, like Gecko) Chrome/49.0.2623.75 Safari/537.36</div></td></tr><tr><td style="font-weight:bold;vertical-align:top;">PATH_INFO</td><td style="vertical-align:top;">:</td><td><div>/camp/appadmin/update/db/auth_user/2</div></td></tr><tr><td style="font-weight:bold;vertical-align:top;">QUERY_STRING</td><td style="vertical-align:top;">:</td><td><div></div></td></tr><tr><td style="font-weight:bold;vertical-align:top;">REMOTE_ADDR</td><td style="vertical-align:top;">:</td><td><div>127.0.0.1</div></td></tr><tr><td style="font-weight:bold;vertical-align:top;">REMOTE_PORT</td><td style="vertical-align:top;">:</td><td><div>61882</div></td></tr><tr><td style="font-weight:bold;vertical-align:top;">REQUEST_METHOD</td><td style="vertical-align:top;">:</td><td><div>GET</div></td></tr><tr><td style="font-weight:bold;vertical-align:top;">SCRIPT_NAME</td><td style="vertical-align:top;">:</td><td><div></div></td></tr><tr><td style="font-weight:bold;vertical-align:top;">SERVER_NAME</td><td style="vertical-align:top;">:</td><td><div>Wadi-Al-Sahara.local</div></td></tr><tr><td style="font-weight:bold;vertical-align:top;">SERVER_PORT</td><td style="vertical-align:top;">:</td><td><div>8000</div></td></tr><tr><td style="font-weight:bold;vertical-align:top;">SERVER_PROTOCOL</td><td style="vertical-align:top;">:</td><td><div>HTTP/1.1</div></td></tr><tr><td style="font-weight:bold;vertical-align:top;">SERVER_SOFTWARE</td><td style="vertical-align:top;">:</td><td><div>Rocket 1.2.6</div></td></tr><tr><td style="font-weight:bold;vertical-align:top;">app_folders</td><td style="vertical-align:top;">:</td><td><div>set([&#x27;/Users/habibi/web2py/applications/camp/&#x27;, &#x27;/Users/habibi/web2py/applications/admin/&#x27;, &#x27;/Users/habibi/web2py/applications/welcome/&#x27;, &#x27;/Users/habibi/web2py/applications/examples/&#x27;])</div></td></tr><tr><td style="font-weight:bold;vertical-align:top;">applications_parent</td><td style="vertical-align:top;">:</td><td><div>/Users/habibi/web2py</div></td></tr><tr><td style="font-weight:bold;vertical-align:top;">cmd_args</td><td style="vertical-align:top;">:</td><td><div><table></table></div></td></tr><tr><td style="font-weight:bold;vertical-align:top;">cmd_options</td><td style="vertical-align:top;">:</td><td><div>&lt;Values at 0x110352e60: {&#x27;verbose&#x27;: False, &#x27;ip&#x27;: &#x27;127.0.0.1&#x27;, &#x27;debuglevel&#x27;: 30, &#x27;with_scheduler&#x27;: False, &#x27;ips&#x27;: [&#x27;fe80::82e6:50ff:fe0b:aec4%en0&#x27;, &#x27;2604:2000:de09:6400:82e6:50ff:fe0b:aec4&#x27;, &#x27;192.168.0.12&#x27;], &#x27;shutdown_timeout&#x27;: 5, &#x27;taskbar&#x27;: False, &#x27;with_coverage&#x27;: False, &#x27;scheduler_groups&#x27;: None, &#x27;port&#x27;: 8000, &#x27;maxthreads&#x27;: None, &#x27;softcron&#x27;: False, &#x27;server_name&#x27;: &#x27;Wadi-Al-Sahara.local&#x27;, &#x27;bpython&#x27;: False, &#x27;nogui&#x27;: False, &#x27;pid_filename&#x27;: &#x27;httpserver.pid&#x27;, &#x27;print_errors&#x27;: False, &#x27;extcron&#x27;: False, &#x27;runcron&#x27;: False, &#x27;run_system_tests&#x27;: False, &#x27;test&#x27;: None, &#x27;folder&#x27;: &#x27;/Users/habibi/web2py&#x27;, &#x27;config&#x27;: &#x27;&#x27;, &#x27;minthreads&#x27;: None, &#x27;shell&#x27;: None, &#x27;run&#x27;: &#x27;&#x27;, &#x27;log_filename&#x27;: &#x27;httpserver.log&#x27;, &#x27;profiler_dir&#x27;: None, &#x27;args&#x27;: [&#x27;&#x27;], &#x27;socket_timeout&#x27;: 5, &#x27;ssl_ca_certificate&#x27;: None, &#x27;scheduler&#x27;: None, &#x27;interfaces&#x27;: None, &#x27;ssl_private_key&#x27;: &#x27;&#x27;, &#x27;gae&#x27;: None, &#x27;password&#x27;: &#x27;Mjsqt!123qwe&#x27;, &#x27;request_queue_size&#x27;: 5, &#x27;ssl_certificate&#x27;: &#x27;&#x27;, &#x27;cronjob&#x27;: False, &#x27;numthreads&#x27;: None, &#x27;quiet&#x27;: False, &#x27;import_models&#x27;: False, &#x27;timeout&#x27;: 10, &#x27;plain&#x27;: False, &#x27;nobanner&#x27;: False}&gt;</div></td></tr><tr><td style="font-weight:bold;vertical-align:top;">db_sessions</td><td style="vertical-align:top;">:</td><td><div>set([])</div></td></tr><tr><td style="font-weight:bold;vertical-align:top;">debugging</td><td style="vertical-align:top;">:</td><td><div>False</div></td></tr><tr><td style="font-weight:bold;vertical-align:top;">gluon_parent</td><td style="vertical-align:top;">:</td><td><div>/Users/habibi/web2py</div></td></tr><tr><td style="font-weight:bold;vertical-align:top;">http_accept</td><td style="vertical-align:top;">:</td><td><div>text/html,application/xhtml+xml,application/xml;q=0.9,image/webp,*/*;q=0.8</div></td></tr><tr><td style="font-weight:bold;vertical-align:top;">http_accept_encoding</td><td style="vertical-align:top;">:</td><td><div>gzip, deflate, sdch</div></td></tr><tr><td style="font-weight:bold;vertical-align:top;">http_accept_language</td><td style="vertical-align:top;">:</td><td><div>en-US,en;q=0.8,ar;q=0.6</div></td></tr><tr><td style="font-weight:bold;vertical-align:top;">http_connection</td><td style="vertical-align:top;">:</td><td><div>keep-alive</div></td></tr><tr><td style="font-weight:bold;vertical-align:top;">http_cookie</td><td style="vertical-align:top;">:</td><td><div>session_id_welcome=127.0.0.1-4f7a1acd-1f50-47c3-bcc7-f3004d73cc84; session_id_camp=127.0.0.1-3782bc05-8379-4591-b816-128c5e671596; session_id_admin=127.0.0.1-9d4353a0-c828-40fe-82b5-811e489506e2</div></td></tr><tr><td style="font-weight:bold;vertical-align:top;">http_dnt</td><td style="vertical-align:top;">:</td><td><div>1</div></td></tr><tr><td style="font-weight:bold;vertical-align:top;">http_host</td><td style="vertical-align:top;">:</td><td><div>localhost:8000</div></td></tr><tr><td style="font-weight:bold;vertical-align:top;">http_referer</td><td style="vertical-align:top;">:</td><td><div>http://localhost:8000/camp/appadmin/select/db</div></td></tr><tr><td style="font-weight:bold;vertical-align:top;">http_upgrade_insecure_requests</td><td style="vertical-align:top;">:</td><td><div>1</div></td></tr><tr><td style="font-weight:bold;vertical-align:top;">http_user_agent</td><td style="vertical-align:top;">:</td><td><div>Mozilla/5.0 (Macintosh; Intel Mac OS X 10_11_2) AppleWebKit/537.36 (KHTML, like Gecko) Chrome/49.0.2623.75 Safari/537.36</div></td></tr><tr><td style="font-weight:bold;vertical-align:top;">is_jython</td><td style="vertical-align:top;">:</td><td><div>False</div></td></tr><tr><td style="font-weight:bold;vertical-align:top;">is_pypy</td><td style="vertical-align:top;">:</td><td><div>False</div></td></tr><tr><td style="font-weight:bold;vertical-align:top;">is_source</td><td style="vertical-align:top;">:</td><td><div>True</div></td></tr><tr><td style="font-weight:bold;vertical-align:top;">local_hosts</td><td style="vertical-align:top;">:</td><td><div><table><tr><td><div>fe80::82e6:50ff:fe0b:aec4%en0</div></td></tr><tr><td><div>Wadi-Al-Sahara.local</div></td></tr><tr><td><div>::ffff:127.0.0.1</div></td></tr><tr><td><div>::1</div></td></tr><tr><td><div>wadi-al-sahara.local</div></td></tr><tr><td><div>192.168.0.12</div></td></tr><tr><td><div>127.0.0.1</div></td></tr><tr><td><div>2604:2000:de09:6400:82e6:50ff:fe0b:aec4</div></td></tr></table></div></td></tr><tr><td style="font-weight:bold;vertical-align:top;">path_info</td><td style="vertical-align:top;">:</td><td><div>/camp/appadmin/update/db/auth_user/2</div></td></tr><tr><td style="font-weight:bold;vertical-align:top;">query_string</td><td style="vertical-align:top;">:</td><td><div></div></td></tr><tr><td style="font-weight:bold;vertical-align:top;">remote_addr</td><td style="vertical-align:top;">:</td><td><div>127.0.0.1</div></td></tr><tr><td style="font-weight:bold;vertical-align:top;">remote_port</td><td style="vertical-align:top;">:</td><td><div>61882</div></td></tr><tr><td style="font-weight:bold;vertical-align:top;">request_method</td><td style="vertical-align:top;">:</td><td><div>GET</div></td></tr><tr><td style="font-weight:bold;vertical-align:top;">request_uri</td><td style="vertical-align:top;">:</td><td><div>/camp/appadmin/update/db/auth_user/2</div></td></tr><tr><td style="font-weight:bold;vertical-align:top;">script_name</td><td style="vertical-align:top;">:</td><td><div></div></td></tr><tr><td style="font-weight:bold;vertical-align:top;">server_name</td><td style="vertical-align:top;">:</td><td><div>Wadi-Al-Sahara.local</div></td></tr><tr><td style="font-weight:bold;vertical-align:top;">server_port</td><td style="vertical-align:top;">:</td><td><div>8000</div></td></tr><tr><td style="font-weight:bold;vertical-align:top;">server_protocol</td><td style="vertical-align:top;">:</td><td><div>HTTP/1.1</div></td></tr><tr><td style="font-weight:bold;vertical-align:top;">server_software</td><td style="vertical-align:top;">:</td><td><div>Rocket 1.2.6</div></td></tr><tr><td style="font-weight:bold;vertical-align:top;">web2py_path</td><td style="vertical-align:top;">:</td><td><div>/Users/habibi/web2py</div></td></tr><tr><td style="font-weight:bold;vertical-align:top;">web2py_version</td><td style="vertical-align:top;">:</td><td><div>2.12.3-stable+timestamp.2015.08.18.19.14.07</div></td></tr><tr><td style="font-weight:bold;vertical-align:top;">wsgi.errors</td><td style="vertical-align:top;">:</td><td><div>&lt;open file &#x27;&lt;stderr&gt;&#x27;, mode &#x27;w&#x27; at 0x10f3911e0&gt;</div></td></tr><tr><td style="font-weight:bold;vertical-align:top;">wsgi.file_wrapper</td><td style="vertical-align:top;">:</td><td><div>&lt;class wsgiref.util.FileWrapper at 0x1100b8808&gt;</div></td></tr><tr><td style="font-weight:bold;vertical-align:top;">wsgi.input</td><td style="vertical-align:top;">:</td><td><div>&lt;socket._fileobject object at 0x112c190d0&gt;</div></td></tr><tr><td style="font-weight:bold;vertical-align:top;">wsgi.multiprocess</td><td style="vertical-align:top;">:</td><td><div>False</div></td></tr><tr><td style="font-weight:bold;vertical-align:top;">wsgi.multithread</td><td style="vertical-align:top;">:</td><td><div>True</div></td></tr><tr><td style="font-weight:bold;vertical-align:top;">wsgi.run_once</td><td style="vertical-align:top;">:</td><td><div>False</div></td></tr><tr><td style="font-weight:bold;vertical-align:top;">wsgi.url_scheme</td><td style="vertical-align:top;">:</td><td><div>http</div></td></tr><tr><td style="font-weight:bold;vertical-align:top;">wsgi.version</td><td style="vertical-align:top;">:</td><td><div><table><tr><td><div>1</div></td></tr><tr><td><div>0</div></td></tr></table></div></td></tr><tr><td style="font-weight:bold;vertical-align:top;">wsgi_errors</td><td style="vertical-align:top;">:</td><td><div>&lt;open file &#x27;&lt;stderr&gt;&#x27;, mode &#x27;w&#x27; at 0x10f3911e0&gt;</div></td></tr><tr><td style="font-weight:bold;vertical-align:top;">wsgi_file_wrapper</td><td style="vertical-align:top;">:</td><td><div>&lt;class wsgiref.util.FileWrapper at 0x1100b8808&gt;</div></td></tr><tr><td style="font-weight:bold;vertical-align:top;">wsgi_input</td><td style="vertical-align:top;">:</td><td><div>&lt;socket._fileobject object at 0x112c190d0&gt;</div></td></tr><tr><td style="font-weight:bold;vertical-align:top;">wsgi_multiprocess</td><td style="vertical-align:top;">:</td><td><div>False</div></td></tr><tr><td style="font-weight:bold;vertical-align:top;">wsgi_multithread</td><td style="vertical-align:top;">:</td><td><div>True</div></td></tr><tr><td style="font-weight:bold;vertical-align:top;">wsgi_run_once</td><td style="vertical-align:top;">:</td><td><div>False</div></td></tr><tr><td style="font-weight:bold;vertical-align:top;">wsgi_url_scheme</td><td style="vertical-align:top;">:</td><td><div>http</div></td></tr><tr><td style="font-weight:bold;vertical-align:top;">wsgi_version</td><td style="vertical-align:top;">:</td><td><div><table><tr><td><div>1</div></td></tr><tr><td><div>0</div></td></tr></table></div></td></tr></table></div></td></tr><tr><td style="font-weight:bold;vertical-align:top;">extension</td><td style="vertical-align:top;">:</td><td><div>html</div></td></tr><tr><td style="font-weight:bold;vertical-align:top;">folder</td><td style="vertical-align:top;">:</td><td><div>/Users/habibi/web2py/applications/camp/</div></td></tr><tr><td style="font-weight:bold;vertical-align:top;">function</td><td style="vertical-align:top;">:</td><td><div>update</div></td></tr><tr><td style="font-weight:bold;vertical-align:top;">global_settings</td><td style="vertical-align:top;">:</td><td><div><table><tr><td style="font-weight:bold;vertical-align:top;">app_folders</td><td style="vertical-align:top;">:</td><td><div>set([&#x27;/Users/habibi/web2py/applications/camp/&#x27;, &#x27;/Users/habibi/web2py/applications/admin/&#x27;, &#x27;/Users/habibi/web2py/applications/welcome/&#x27;, &#x27;/Users/habibi/web2py/applications/examples/&#x27;])</div></td></tr><tr><td style="font-weight:bold;vertical-align:top;">applications_parent</td><td style="vertical-align:top;">:</td><td><div>/Users/habibi/web2py</div></td></tr><tr><td style="font-weight:bold;vertical-align:top;">cmd_args</td><td style="vertical-align:top;">:</td><td><div><table></table></div></td></tr><tr><td style="font-weight:bold;vertical-align:top;">cmd_options</td><td style="vertical-align:top;">:</td><td><div>&lt;Values at 0x110352e60: {&#x27;verbose&#x27;: False, &#x27;ip&#x27;: &#x27;127.0.0.1&#x27;, &#x27;debuglevel&#x27;: 30, &#x27;with_scheduler&#x27;: False, &#x27;ips&#x27;: [&#x27;fe80::82e6:50ff:fe0b:aec4%en0&#x27;, &#x27;2604:2000:de09:6400:82e6:50ff:fe0b:aec4&#x27;, &#x27;192.168.0.12&#x27;], &#x27;shutdown_timeout&#x27;: 5, &#x27;taskbar&#x27;: False, &#x27;with_coverage&#x27;: False, &#x27;scheduler_groups&#x27;: None, &#x27;port&#x27;: 8000, &#x27;maxthreads&#x27;: None, &#x27;softcron&#x27;: False, &#x27;server_name&#x27;: &#x27;Wadi-Al-Sahara.local&#x27;, &#x27;bpython&#x27;: False, &#x27;nogui&#x27;: False, &#x27;pid_filename&#x27;: &#x27;httpserver.pid&#x27;, &#x27;print_errors&#x27;: False, &#x27;extcron&#x27;: False, &#x27;runcron&#x27;: False, &#x27;run_system_tests&#x27;: False, &#x27;test&#x27;: None, &#x27;folder&#x27;: &#x27;/Users/habibi/web2py&#x27;, &#x27;config&#x27;: &#x27;&#x27;, &#x27;minthreads&#x27;: None, &#x27;shell&#x27;: None, &#x27;run&#x27;: &#x27;&#x27;, &#x27;log_filename&#x27;: &#x27;httpserver.log&#x27;, &#x27;profiler_dir&#x27;: None, &#x27;args&#x27;: [&#x27;&#x27;], &#x27;socket_timeout&#x27;: 5, &#x27;ssl_ca_certificate&#x27;: None, &#x27;scheduler&#x27;: None, &#x27;interfaces&#x27;: None, &#x27;ssl_private_key&#x27;: &#x27;&#x27;, &#x27;gae&#x27;: None, &#x27;password&#x27;: &#x27;Mjsqt!123qwe&#x27;, &#x27;request_queue_size&#x27;: 5, &#x27;ssl_certificate&#x27;: &#x27;&#x27;, &#x27;cronjob&#x27;: False, &#x27;numthreads&#x27;: None, &#x27;quiet&#x27;: False, &#x27;import_models&#x27;: False, &#x27;timeout&#x27;: 10, &#x27;plain&#x27;: False, &#x27;nobanner&#x27;: False}&gt;</div></td></tr><tr><td style="font-weight:bold;vertical-align:top;">db_sessions</td><td style="vertical-align:top;">:</td><td><div>set([])</div></td></tr><tr><td style="font-weight:bold;vertical-align:top;">debugging</td><td style="vertical-align:top;">:</td><td><div>False</div></td></tr><tr><td style="font-weight:bold;vertical-align:top;">gluon_parent</td><td style="vertical-align:top;">:</td><td><div>/Users/habibi/web2py</div></td></tr><tr><td style="font-weight:bold;vertical-align:top;">is_jython</td><td style="vertical-align:top;">:</td><td><div>False</div></td></tr><tr><td style="font-weight:bold;vertical-align:top;">is_pypy</td><td style="vertical-align:top;">:</td><td><div>False</div></td></tr><tr><td style="font-weight:bold;vertical-align:top;">is_source</td><td style="vertical-align:top;">:</td><td><div>True</div></td></tr><tr><td style="font-weight:bold;vertical-align:top;">local_hosts</td><td style="vertical-align:top;">:</td><td><div><table><tr><td><div>fe80::82e6:50ff:fe0b:aec4%en0</div></td></tr><tr><td><div>Wadi-Al-Sahara.local</div></td></tr><tr><td><div>::ffff:127.0.0.1</div></td></tr><tr><td><div>::1</div></td></tr><tr><td><div>wadi-al-sahara.local</div></td></tr><tr><td><div>192.168.0.12</div></td></tr><tr><td><div>127.0.0.1</div></td></tr><tr><td><div>2604:2000:de09:6400:82e6:50ff:fe0b:aec4</div></td></tr></table></div></td></tr><tr><td style="font-weight:bold;vertical-align:top;">web2py_version</td><td style="vertical-align:top;">:</td><td><div>2.12.3-stable+timestamp.2015.08.18.19.14.07</div></td></tr></table></div></td></tr><tr><td style="font-weight:bold;vertical-align:top;">is_https</td><td style="vertical-align:top;">:</td><td><div>False</div></td></tr><tr><td style="font-weight:bold;vertical-align:top;">is_local</td><td style="vertical-align:top;">:</td><td><div>True</div></td></tr><tr><td style="font-weight:bold;vertical-align:top;">is_restful</td><td style="vertical-align:top;">:</td><td><div>False</div></td></tr><tr><td style="font-weight:bold;vertical-align:top;">is_sheduler</td><td style="vertical-align:top;">:</td><td><div>None</div></td></tr><tr><td style="font-weight:bold;vertical-align:top;">is_shell</td><td style="vertical-align:top;">:</td><td><div>None</div></td></tr><tr><td style="font-weight:bold;vertical-align:top;">now</td><td style="vertical-align:top;">:</td><td><div>datetime.datetime(2016, 3, 13, 20, 33, 7, 729991)</div></td></tr><tr><td style="font-weight:bold;vertical-align:top;">raw_args</td><td style="vertical-align:top;">:</td><td><div>db/auth_user/2</div></td></tr><tr><td style="font-weight:bold;vertical-align:top;">raw_extension</td><td style="vertical-align:top;">:</td><td><div>None</div></td></tr><tr><td style="font-weight:bold;vertical-align:top;">url</td><td style="vertical-align:top;">:</td><td><div>/camp/appadmin/update/db/auth_user/2</div></td></tr><tr><td style="font-weight:bold;vertical-align:top;">utcnow</td><td style="vertical-align:top;">:</td><td><div>datetime.datetime(2016, 3, 14, 0, 33, 7, 730000)</div></td></tr><tr><td style="font-weight:bold;vertical-align:top;">wsgi</td><td style="vertical-align:top;">:</td><td><div>&lt;gluon.main.LazyWSGI object at 0x11228eb90&gt;</div></td></tr></table></div>'
tRp58
sS'frames'
p59
(lp60
(dp61
S'file'
p62
S'/Users/habibi/web2py/gluon/restricted.py'
p63
sS'dump'
p64
(dp65
S'environment'
p66
S"{'A': <class 'gluon.html.A'>, 'ANY_OF': <class 'gluon.validators.ANY_OF'>, 'ASSIGNJS': <function ASSIGNJS>, 'Auth': <class 'gluon.tools.Auth'>, 'B': <class 'gluon.html.B'>, 'BEAUTIFY': <class 'gluon.html.BEAUTIFY'>, 'BODY': <class 'gluon.html.BODY'>, 'BR': <class 'gluon.html.BR'>, 'BUTTON': <class 'gluon.html.BUTTON'>, 'CAT': <class 'gluon.html.CAT'>, ...}"
p67
sS'ccode'
p68
S'<code object <module> at 0x112c2d530, file "/Use...i/web2py/applications/camp/models/db.py", line 1>'
p69
ssS'lnum'
p70
I227
sS'lines'
p71
(dp72
I224
S'            ccode = code'
p73
sI225
S'        else:'
p74
sI226
S'            ccode = compile2(code, layer)'
p75
sI227
S'        exec ccode in environment'
p76
sI228
S'    except HTTP:'
p77
sI229
S'        raise'
p78
sI230
S'    except RestrictedError:'
p79
sI231
S'        # do not encapsulate (obfuscate) the original RestrictedError'
p80
sI222
S'    try:'
p81
sI223
S'        if isinstance(code, types.CodeType):'
p82
ssS'call'
p83
S'(code="db = DAL(\'sqlite://storage.sqlite\')\\n\\nfrom gluon....),\\n#     Field(\'other_friends_family\', \'text\'))\\n\\n", environment={\'A\': <class \'gluon.html.A\'>, \'ANY_OF\': <class \'gluon.validators.ANY_OF\'>, \'ASSIGNJS\': <function ASSIGNJS>, \'Auth\': <class \'gluon.tools.Auth\'>, \'B\': <class \'gluon.html.B\'>, \'BEAUTIFY\': <class \'gluon.html.BEAUTIFY\'>, \'BODY\': <class \'gluon.html.BODY\'>, \'BR\': <class \'gluon.html.BR\'>, \'BUTTON\': <class \'gluon.html.BUTTON\'>, \'CAT\': <class \'gluon.html.CAT\'>, ...}, layer=\'/Users/habibi/web2py/applications/camp/models/db.py\')'
p84
sS'func'
p85
S'restricted'
p86
sa(dp87
g62
S'/Users/habibi/web2py/applications/camp/models/db.py'
p88
sg64
(dp89
S'db.auth_user'
p90
S'<Table auth_user (id,first_name,last_name,email,...stration_key,reset_password_key,registration_id)>'
p91
sS'db'
p92
S'<DAL uri="sqlite://storage.sqlite">'
p93
sS'db.staff.auth_user'
p94
S'undefined'
p95
sS'db.staff'
p96
S'<Table staff (id,first_name,middle_name,last_nam...icy_issued_to,policy_number,policy_group_number)>'
p97
sS'IS_IN_DB'
p98
S"<class 'gluon.validators.IS_IN_DB'>"
p99
ssg70
I127
sg71
(dp100
I128
S''
sI129
S''
sI130
S"db.define_table('counselor',"
p101
sI131
S"    # Field('auth_user', 'reference auth_user', readable=False, writable=False),"
p102
sI122
S"    Field('waiver_date', default=request.now),"
p103
sI123
S"    Field('health_policy_issued_to', requires=IS_NOT_EMPTY()),"
p104
sI124
S"    Field('policy_number', requires=IS_NOT_EMPTY()),"
p105
sI125
S"    Field('policy_group_number', requires=IS_NOT_EMPTY()))"
p106
sI126
S''
sI127
S'db.staff.auth_user.requires = IS_IN_DB(db, db.auth_user)'
p107
ssg83
S'()'
p108
sg85
S'<module>'
p109
sasS'pyver'
p110
S'Python 2.7.10: /usr/bin/python (prefix: /System/Library/Frameworks/Python.framework/Versions/2.7)'
p111
sS'session'
p112
g57
(S's6\x01\x00\x00<div><table><tr><td style="font-weight:bold;vertical-align:top;">last_orderby</td><td style="vertical-align:top;">:</td><td><div>None</div></td></tr><tr><td style="font-weight:bold;vertical-align:top;">last_query</td><td style="vertical-align:top;">:</td><td><div>db.staff.id&gt;0</div></td></tr></table></div>'
tRp113
sS'etype'
p114
S"<type 'exceptions.AttributeError'>"
p115
sS'date'
p116
S'Sun Mar 13 20:33:07 2016'
p117
sS'response'
p118
g57
(S's\xdd\x17\x00\x00<div><table><tr><td style="font-weight:bold;vertical-align:top;">body</td><td style="vertical-align:top;">:</td><td><div>&lt;cStringIO.StringO object at 0x111871ae8&gt;</div></td></tr><tr><td style="font-weight:bold;vertical-align:top;">cookies</td><td style="vertical-align:top;">:</td><td><div><table><tr><td style="font-weight:bold;vertical-align:top;">session_id_camp</td><td style="vertical-align:top;">:</td><td><div>127.0.0.1-3782bc05-8379-4591-b816-128c5e671596<table><tr><td style="font-weight:bold;vertical-align:top;">comment</td><td style="vertical-align:top;">:</td><td><div></div></td></tr><tr><td style="font-weight:bold;vertical-align:top;">domain</td><td style="vertical-align:top;">:</td><td><div></div></td></tr><tr><td style="font-weight:bold;vertical-align:top;">expires</td><td style="vertical-align:top;">:</td><td><div></div></td></tr><tr><td style="font-weight:bold;vertical-align:top;">httponly</td><td style="vertical-align:top;">:</td><td><div></div></td></tr><tr><td style="font-weight:bold;vertical-align:top;">max-age</td><td style="vertical-align:top;">:</td><td><div></div></td></tr><tr><td style="font-weight:bold;vertical-align:top;">path</td><td style="vertical-align:top;">:</td><td><div>/</div></td></tr><tr><td style="font-weight:bold;vertical-align:top;">secure</td><td style="vertical-align:top;">:</td><td><div></div></td></tr><tr><td style="font-weight:bold;vertical-align:top;">version</td><td style="vertical-align:top;">:</td><td><div></div></td></tr></table></div></td></tr></table></div></td></tr><tr><td style="font-weight:bold;vertical-align:top;">delimiters</td><td style="vertical-align:top;">:</td><td><div><table><tr><td><div>{{</div></td></tr><tr><td><div>}}</div></td></tr></table></div></td></tr><tr><td style="font-weight:bold;vertical-align:top;">files</td><td style="vertical-align:top;">:</td><td><div><table></table></div></td></tr><tr><td style="font-weight:bold;vertical-align:top;">flash</td><td style="vertical-align:top;">:</td><td><div></div></td></tr><tr><td style="font-weight:bold;vertical-align:top;">form_label_separator</td><td style="vertical-align:top;">:</td><td><div>: </div></td></tr><tr><td style="font-weight:bold;vertical-align:top;">formstyle</td><td style="vertical-align:top;">:</td><td><div>table3cols</div></td></tr><tr><td style="font-weight:bold;vertical-align:top;">generic_patterns</td><td style="vertical-align:top;">:</td><td><div><table><tr><td><div>*</div></td></tr></table></div></td></tr><tr><td style="font-weight:bold;vertical-align:top;">headers</td><td style="vertical-align:top;">:</td><td><div><table><tr><td style="font-weight:bold;vertical-align:top;">X-Powered-By</td><td style="vertical-align:top;">:</td><td><div>web2py</div></td></tr></table></div></td></tr><tr><td style="font-weight:bold;vertical-align:top;">menu</td><td style="vertical-align:top;">:</td><td><div><table></table></div></td></tr><tr><td style="font-weight:bold;vertical-align:top;">meta</td><td style="vertical-align:top;">:</td><td><div><table></table></div></td></tr><tr><td style="font-weight:bold;vertical-align:top;">models_to_run</td><td style="vertical-align:top;">:</td><td><div><table><tr><td><div>^\\w+\\.py$</div></td></tr><tr><td><div>^appadmin/\\w+\\.py$</div></td></tr><tr><td><div>^appadmin/update/\\w+\\.py$</div></td></tr></table></div></td></tr><tr><td style="font-weight:bold;vertical-align:top;">postprocessing</td><td style="vertical-align:top;">:</td><td><div><table></table></div></td></tr><tr><td style="font-weight:bold;vertical-align:top;">session_client</td><td style="vertical-align:top;">:</td><td><div>127.0.0.1</div></td></tr><tr><td style="font-weight:bold;vertical-align:top;">session_cookie_compression_level</td><td style="vertical-align:top;">:</td><td><div>None</div></td></tr><tr><td style="font-weight:bold;vertical-align:top;">session_cookie_expires</td><td style="vertical-align:top;">:</td><td><div>None</div></td></tr><tr><td style="font-weight:bold;vertical-align:top;">session_cookie_key</td><td style="vertical-align:top;">:</td><td><div>None</div></td></tr><tr><td style="font-weight:bold;vertical-align:top;">session_data_name</td><td style="vertical-align:top;">:</td><td><div>session_data_camp</div></td></tr><tr><td style="font-weight:bold;vertical-align:top;">session_file</td><td style="vertical-align:top;">:</td><td><div>&lt;open file &#x27;/Users/habibi/web2py/applications/camp/sessions/060/16b/127.0.0.1-3782bc05-8379-4591-b816-128c5e671596&#x27;, mode &#x27;rb+&#x27; at 0x111711c00&gt;</div></td></tr><tr><td style="font-weight:bold;vertical-align:top;">session_filename</td><td style="vertical-align:top;">:</td><td><div>/Users/habibi/web2py/applications/camp/sessions/127.0.0.1-3782bc05-8379-4591-b816-128c5e671596</div></td></tr><tr><td style="font-weight:bold;vertical-align:top;">session_hash</td><td style="vertical-align:top;">:</td><td><div>41572eb27c1525678df22a6d0c06bcd3</div></td></tr><tr><td style="font-weight:bold;vertical-align:top;">session_id</td><td style="vertical-align:top;">:</td><td><div>127.0.0.1-3782bc05-8379-4591-b816-128c5e671596</div></td></tr><tr><td style="font-weight:bold;vertical-align:top;">session_id_name</td><td style="vertical-align:top;">:</td><td><div>session_id_camp</div></td></tr><tr><td style="font-weight:bold;vertical-align:top;">session_locked</td><td style="vertical-align:top;">:</td><td><div>True</div></td></tr><tr><td style="font-weight:bold;vertical-align:top;">session_masterapp</td><td style="vertical-align:top;">:</td><td><div>camp</div></td></tr><tr><td style="font-weight:bold;vertical-align:top;">session_new</td><td style="vertical-align:top;">:</td><td><div>False</div></td></tr><tr><td style="font-weight:bold;vertical-align:top;">session_storage_type</td><td style="vertical-align:top;">:</td><td><div>file</div></td></tr><tr><td style="font-weight:bold;vertical-align:top;">status</td><td style="vertical-align:top;">:</td><td><div>200</div></td></tr><tr><td style="font-weight:bold;vertical-align:top;">view</td><td style="vertical-align:top;">:</td><td><div>appadmin/update.html</div></td></tr></table></div>'
tRp119
sS'locals'
p120
(dp121
S'Service'
p122
S"<class 'gluon.tools.Service'>"
p123
sS'OBJECT'
p124
S"<class 'gluon.html.OBJECT'>"
p125
sS'SQLDB'
p126
S"<class 'pydal.base.DAL'>"
p127
sg112
S"<Storage {'last_query': 'db.staff.id>0', '_formk...652f3', 'fba36ee3-05c2-4f31-a51f-5c01dd252d4b']}>"
p128
sS'LINK'
p129
S"<class 'gluon.html.LINK'>"
p130
sS'BR'
p131
S"<class 'gluon.html.BR'>"
p132
sS'local_import'
p133
S'<function <lambda>>'
p134
sS'OPTGROUP'
p135
S"<class 'gluon.html.OPTGROUP'>"
p136
sS'LI'
p137
S"<class 'gluon.html.LI'>"
p138
sS'PRE'
p139
S"<class 'gluon.html.PRE'>"
p140
sS'IS_INT_IN_RANGE'
p141
S"<class 'gluon.validators.IS_INT_IN_RANGE'>"
p142
sS'IS_LOWER'
p143
S"<class 'gluon.validators.IS_LOWER'>"
p144
sS'IS_STRONG'
p145
S"<class 'gluon.validators.IS_STRONG'>"
p146
sS'Recaptcha'
p147
S"<class 'gluon.tools.Recaptcha'>"
p148
sS'cache'
p149
S'<gluon.cache.Cache object>'
p150
sS'IS_IN_DB'
p151
S"<class 'gluon.validators.IS_IN_DB'>"
p152
sS'TAG'
p153
S'<gluon.html.__TAG__ object>'
p154
sS'SQLField'
p155
S"<class 'pydal.objects.Field'>"
p156
sS'BODY'
p157
S"<class 'gluon.html.BODY'>"
p158
sS'IS_DATE_IN_RANGE'
p159
S"<class 'gluon.validators.IS_DATE_IN_RANGE'>"
p160
sS'TH'
p161
S"<class 'gluon.html.TH'>"
p162
sS'URL'
p163
S'<function URL>'
p164
sS'__file__'
p165
S"'/Users/habibi/web2py/applications/camp/models/db.py'"
p166
sS'db'
p167
S'<DAL uri="sqlite://storage.sqlite">'
p168
sS'auth'
p169
S'<gluon.tools.Auth object>'
p170
sS'P'
S"<class 'gluon.html.P'>"
p171
sS'TFOOT'
p172
S"<class 'gluon.html.TFOOT'>"
p173
sS'XHTML'
p174
S"<class 'gluon.html.XHTML'>"
p175
sS'ON'
p176
S'True'
p177
sS'OL'
p178
S"<class 'gluon.html.OL'>"
p179
sS'TEXTAREA'
p180
S"<class 'gluon.html.TEXTAREA'>"
p181
sS'MENU'
p182
S"<class 'gluon.html.MENU'>"
p183
sS'reverse_geocode'
p184
S'<function reverse_geocode>'
p185
sS'LOAD'
p186
S'<function LOAD>'
p187
sS'CODE'
p188
S"<class 'gluon.html.CODE'>"
p189
sS'HTTP'
p190
S"<class 'gluon.http.HTTP'>"
p191
sS'HR'
p192
S"<class 'gluon.html.HR'>"
p193
sS'IS_DATETIME'
p194
S"<class 'gluon.validators.IS_DATETIME'>"
p195
sS'HEAD'
p196
S"<class 'gluon.html.HEAD'>"
p197
sS'LABEL'
p198
S"<class 'gluon.html.LABEL'>"
p199
sS'CLEANUP'
p200
S"<class 'gluon.validators.CLEANUP'>"
p201
sS'SELECT'
p202
S"<class 'gluon.html.SELECT'>"
p203
sS'CENTER'
p204
S"<class 'gluon.html.CENTER'>"
p205
sS'prettydate'
p206
S'<function prettydate>'
p207
sS'Crud'
p208
S"<class 'gluon.tools.Crud'>"
p209
sS'Auth'
p210
S"<class 'gluon.tools.Auth'>"
p211
sS'__builtins__'
p212
S"{'ArithmeticError': <type 'exceptions.ArithmeticError'>, 'AssertionError': <type 'exceptions.AssertionError'>, 'AttributeError': <type 'exceptions.AttributeError'>, 'BaseException': <type 'exceptions.BaseException'>, 'BufferError': <type 'exceptions.BufferError'>, 'BytesWarning': <type 'exceptions.BytesWarning'>, 'DeprecationWarning': <type 'exceptions.DeprecationWarning'>, 'EOFError': <type 'exceptions.EOFError'>, 'Ellipsis': Ellipsis, 'EnvironmentError': <type 'exceptions.EnvironmentError'>, ...}"
p213
sS'HTML'
p214
S"<class 'gluon.html.HTML'>"
p215
sS'SQLFORM'
p216
S"<class 'gluon.sqlhtml.SQLFORM'>"
p217
sS'EM'
p218
S"<class 'gluon.html.EM'>"
p219
sS'redirect'
p220
S'<function redirect>'
p221
sS'FIELDSET'
p222
S"<class 'gluon.html.FIELDSET'>"
p223
sS'IS_EQUAL_TO'
p224
S"<class 'gluon.validators.IS_EQUAL_TO'>"
p225
sS'embed64'
p226
S'<function embed64>'
p227
sS'IS_LIST_OF'
p228
S"<class 'gluon.validators.IS_LIST_OF'>"
p229
sS'__name__'
p230
S"'__restricted__'"
p231
sS'EMBED'
p232
S"<class 'gluon.html.EMBED'>"
p233
sS'FORM'
p234
S"<class 'gluon.html.FORM'>"
p235
sS'H2'
p236
S"<class 'gluon.html.H2'>"
p237
sS'H3'
p238
S"<class 'gluon.html.H3'>"
p239
sS'BUTTON'
p240
S"<class 'gluon.html.BUTTON'>"
p241
sS'H1'
p242
S"<class 'gluon.html.H1'>"
p243
sS'H6'
p244
S"<class 'gluon.html.H6'>"
p245
sS'H4'
p246
S"<class 'gluon.html.H4'>"
p247
sS'H5'
p248
S"<class 'gluon.html.H5'>"
p249
sS'UL'
p250
S"<class 'gluon.html.UL'>"
p251
sS'IS_UPPER'
p252
S"<class 'gluon.validators.IS_UPPER'>"
p253
sS'xmlescape'
p254
S'<function xmlescape>'
p255
sS'IS_TIME'
p256
S"<class 'gluon.validators.IS_TIME'>"
p257
sS'OPTION'
p258
S"<class 'gluon.html.OPTION'>"
p259
sS'TITLE'
p260
S"<class 'gluon.html.TITLE'>"
p261
sS'CRYPT'
p262
S"<class 'gluon.validators.CRYPT'>"
p263
sS'IS_EMPTY_OR'
p264
S"<class 'gluon.validators.IS_EMPTY_OR'>"
p265
sS'MARKMIN'
p266
S"<class 'gluon.html.MARKMIN'>"
p267
sS'Recaptcha2'
p268
S"<class 'gluon.tools.Recaptcha2'>"
p269
sS'INPUT'
p270
S"<class 'gluon.html.INPUT'>"
p271
sS'STRONG'
p272
S"<class 'gluon.html.STRONG'>"
p273
sS'COL'
p274
S"<class 'gluon.html.COL'>"
p275
sS'SCRIPT'
p276
S"<class 'gluon.html.SCRIPT'>"
p277
sS'geocode'
p278
S'<function geocode>'
p279
sS'TABLE'
p280
S"<class 'gluon.html.TABLE'>"
p281
sS'IS_IPV4'
p282
S"<class 'gluon.validators.IS_IPV4'>"
p283
sS'IS_LENGTH'
p284
S"<class 'gluon.validators.IS_LENGTH'>"
p285
sS'IS_IPV6'
p286
S"<class 'gluon.validators.IS_IPV6'>"
p287
sS'XML'
p288
S"<class 'gluon.html.XML'>"
p289
sS'ANY_OF'
p290
S"<class 'gluon.validators.ANY_OF'>"
p291
sS'B'
S"<class 'gluon.html.B'>"
p292
sS'IMG'
p293
S"<class 'gluon.html.IMG'>"
p294
sS'SQLTABLE'
p295
S"<class 'gluon.sqlhtml.SQLTABLE'>"
p296
sS'IS_MATCH'
p297
S"<class 'gluon.validators.IS_MATCH'>"
p298
sS'IS_ALPHANUMERIC'
p299
S"<class 'gluon.validators.IS_ALPHANUMERIC'>"
p300
sS'SPAN'
p301
S"<class 'gluon.html.SPAN'>"
p302
sS'IS_JSON'
p303
S"<class 'gluon.validators.IS_JSON'>"
p304
sS'IS_IPADDRESS'
p305
S"<class 'gluon.validators.IS_IPADDRESS'>"
p306
sS'IS_SLUG'
p307
S"<class 'gluon.validators.IS_SLUG'>"
p308
sS'BEAUTIFY'
p309
S"<class 'gluon.html.BEAUTIFY'>"
p310
sS'META'
p311
S"<class 'gluon.html.META'>"
p312
sS'fetch'
p313
S'<function fetch>'
p314
sS'IS_DATE'
p315
S"<class 'gluon.validators.IS_DATE'>"
p316
sS'IS_EMAIL'
p317
S"<class 'gluon.validators.IS_EMAIL'>"
p318
sS'IS_NOT_EMPTY'
p319
S"<class 'gluon.validators.IS_NOT_EMPTY'>"
p320
sS'IS_FLOAT_IN_RANGE'
p321
S"<class 'gluon.validators.IS_FLOAT_IN_RANGE'>"
p322
sS'TBODY'
p323
S"<class 'gluon.html.TBODY'>"
p324
sS'CAT'
p325
S"<class 'gluon.html.CAT'>"
p326
sS'Field'
p327
S"<class 'pydal.objects.Field'>"
p328
sS'IS_LIST_OF_EMAILS'
p329
S"<class 'gluon.validators.IS_LIST_OF_EMAILS'>"
p330
sS'Mail'
p331
S"<class 'gluon.tools.Mail'>"
p332
sS'DIV'
p333
S"<class 'gluon.html.DIV'>"
p334
sS'LEGEND'
p335
S"<class 'gluon.html.LEGEND'>"
p336
sS'COLGROUP'
p337
S"<class 'gluon.html.COLGROUP'>"
p338
sS'DAL'
p339
S"<class 'pydal.base.DAL'>"
p340
sS'ASSIGNJS'
p341
S'<function ASSIGNJS>'
p342
sS'TR'
p343
S"<class 'gluon.html.TR'>"
p344
sS'__package__'
p345
S'None'
p346
sS'IFRAME'
p347
S"<class 'gluon.html.IFRAME'>"
p348
sS'TD'
p349
S"<class 'gluon.html.TD'>"
p350
sS'PluginManager'
p351
S"<class 'gluon.tools.PluginManager'>"
p352
sS'IS_URL'
p353
S"<class 'gluon.validators.IS_URL'>"
p354
sS'A'
S"<class 'gluon.html.A'>"
p355
sS'STYLE'
p356
S"<class 'gluon.html.STYLE'>"
p357
sS'IS_DATETIME_IN_RANGE'
p358
S"<class 'gluon.validators.IS_DATETIME_IN_RANGE'>"
p359
sS'IS_IMAGE'
p360
S"<class 'gluon.validators.IS_IMAGE'>"
p361
sS'I'
S"<class 'gluon.html.I'>"
p362
sS'IS_NOT_IN_DB'
p363
S"<class 'gluon.validators.IS_NOT_IN_DB'>"
p364
sg118
S"<Storage {'body': <cStringIO.StringO object at 0...at 0x111f9e398>, 'view': 'appadmin/update.html'}>"
p365
sS'THEAD'
p366
S"<class 'gluon.html.THEAD'>"
p367
sS'Wiki'
p368
S"<class 'gluon.tools.Wiki'>"
p369
sS'IS_NULL_OR'
p370
S"<class 'gluon.validators.IS_EMPTY_OR'>"
p371
sg56
S"<Storage {'_vars': None, 'function': 'update', '...der': '/Users/habibi/web2py/applications/camp/'}>"
p372
sS'IS_EXPR'
p373
S"<class 'gluon.validators.IS_EXPR'>"
p374
sS'IS_IN_SET'
p375
S"<class 'gluon.validators.IS_IN_SET'>"
p376
sS'IS_UPLOAD_FILENAME'
p377
S"<class 'gluon.validators.IS_UPLOAD_FILENAME'>"
p378
sS'IS_DECIMAL_IN_RANGE'
p379
S"<class 'gluon.validators.IS_DECIMAL_IN_RANGE'>"
p380
sS'TT'
p381
S"<class 'gluon.html.TT'>"
p382
sS'T'
S'<gluon.languages.translator object>'
p383
sssS'traceback'
p384
S'Traceback (most recent call last):\n  File "/Users/habibi/web2py/gluon/restricted.py", line 227, in restricted\n    exec ccode in environment\n  File "/Users/habibi/web2py/applications/camp/models/db.py", line 127, in <module>\n    db.staff.auth_user.requires = IS_IN_DB(db, db.auth_user)\nAttributeError: \'Table\' object has no attribute \'auth_user\'\n'
p385
s.